(dp1
S'output'
p2
S"<type 'exceptions.AttributeError'> 'tuple' object has no attribute 'comicbook'"
p3
sS'layer'
p4
S'/home/miguel/Documents/IAPT/web2py/applications/IAPTassessment/views/default/index.html'
p5
sS'code'
p6
S'response.write(\'<!DOCTYPE html>\\n\\n<!--[if (gt IE 9)|!(IE)]><!-->\\n<html class="no-js" lang="\', escape=False)\nresponse.write(T.accepted_language or \'en\')\nresponse.write(\'"> <!--<![endif]-->\\n\\n<head>\\n    <meta charset="utf-8">\\n    <!-- www.phpied.com/conditional-comments-block-downloads/ -->\\n    <!-- Always force latest IE rendering engine\\n         (even in intranet) & Chrome Frame\\n         Remove this if you use the .htaccess -->\\n    <meta http-equiv="X-UA-Compatible" content="IE=edge\', escape=False)\nresponse.write(not request.is_local and \',chrome=1\' or \'\')\nresponse.write(\'">\\n    <!--  Mobile Viewport Fix\\n          j.mp/mobileviewport & davidbcalhoun.com/2010/viewport-metatag\\n          device-width: Occupy full width of the screen in its current orientation\\n          initial-scale = 1.0 retains dimensions instead of zooming out if page height > device height\\n          user-scalable = yes allows the user to zoom in -->\\n    <meta name="viewport" content="width=device-width, initial-scale=1.0">\\n    <title>\', escape=False)\nresponse.write(response.title or request.application)\nresponse.write(\'</title>\\n    <!-- http://dev.w3.org/html5/markup/meta.name.html -->\\n    <meta name="application-name" content="\', escape=False)\nresponse.write(request.application)\nresponse.write(\'">\\n    <!-- Speaking of Google, don\\\'t forget to set your site up:\\n         http://google.com/webmasters -->\\n    <meta name="google-site-verification" content="">\\n    <!-- include stylesheets -->\\n    <link rel="stylesheet" href="\', escape=False)\nresponse.write(URL(\'static\',\'css/IAPTassessment.css\'))\nresponse.write(\'"/>\\n    <link rel="stylesheet" href="\', escape=False)\nresponse.write(URL(\'static\',\'css/bootstrap.min.css\'))\nresponse.write(\'"/>\\n    <link rel="stylesheet" href="\', escape=False)\nresponse.write(URL(\'static\',\'css/bootstrap-theme.min.css\'))\nresponse.write(\'"/>\\n    <link rel="stylesheet" href="\', escape=False)\nresponse.write(URL(\'static\',\'css/web2py-bootstrap3.css\'))\nresponse.write(\'"/>\\n    <link rel="shortcut icon" href="\', escape=False)\nresponse.write(URL(\'static\',\'images/favicon.ico\'))\nresponse.write(\'" type="image/x-icon">\\n    <link rel="apple-touch-icon" href="\', escape=False)\nresponse.write(URL(\'static\',\'images/favicon.png\'))\nresponse.write(\'">\\n    <!-- All JavaScript at the bottom, except for Modernizr which enables\\n         HTML5 elements & feature detects -->\\n    <script src="\', escape=False)\nresponse.write(URL(\'static\',\'js/comic.js\'))\nresponse.write(\'"></script>\\n    <script src="\', escape=False)\nresponse.write(URL(\'static\',\'js/modernizr-2.8.3.min.js\'))\nresponse.write(\'"></script>\\n    <!--[if lt IE 9]>\\n        <script src="\', escape=False)\nresponse.write(URL(\'static\',\'js/respond-1.4.2.min.js\'))\nresponse.write(\'"></script>\\n        <![endif]-->\\n    <!-- Favicons -->\\n\', escape=False)\nresponse.write(\'<script type="text/javascript"><!--\\n    // These variables are used by the web2py_ajax_init function in web2py_ajax.js (which is loaded below).\\n    var w2p_ajax_confirm_message = "\', escape=False)\nresponse.write(T(\'Are you sure you want to delete this object?\'))\nresponse.write(\'";\\n    var w2p_ajax_disable_with_message = "\', escape=False)\nresponse.write(T(\'Working...\'))\nresponse.write(\'";\\n    var w2p_ajax_date_format = "\', escape=False)\nresponse.write(T(\'%Y-%m-%d\'))\nresponse.write(\'";\\n    var w2p_ajax_datetime_format = "\', escape=False)\nresponse.write(T(\'%Y-%m-%d %H:%M:%S\'))\nresponse.write(\'";\\n    var ajax_error_500 = \\\'\', escape=False)\nresponse.write(T.M(\'An error occured, please [[reload %s]] the page\') % URL(args=request.args, vars=request.get_vars))\nresponse.write("\'\\n    //--></script>\\n", escape=False)\nresponse.files.insert(0,URL(\'static\',\'js/jquery.js\'))\nresponse.files.insert(1,URL(\'static\',\'css/calendar.css\'))\nresponse.files.insert(2,URL(\'static\',\'js/calendar.js\'))\nresponse.files.insert(3,URL(\'static\',\'js/web2py.js\'))\nresponse.include_meta()\nresponse.include_files()\nresponse.write(\'\\n\', escape=False)\nresponse.write(\' <!-- this includes jquery.js, calendar.js/.css and web2py.js -->\\n\', escape=False)\nresponse.write(\'\\n\', escape=False)\n# using sidebars need to know what sidebar you want to use\nmc0 = \'col-md-12\'\nmc1 = \'col-md-9\'\nmc2 = \'col-md-6\'\nleft_sidebar_enabled = globals().get(\'left_sidebar_enabled\', False)\nright_sidebar_enabled = globals().get(\'right_sidebar_enabled\', False)\nmiddle_column = {0: mc0, 1: mc1, 2: mc2}[\n(left_sidebar_enabled and 1 or 0)+(right_sidebar_enabled and 1 or 0)]\nresponse.write(\'\\n</head>\\n<body>\\n<div class="flash alert alert-dismissable">\', escape=False)\nresponse.write(response.flash or \'\')\nresponse.write(\'</div>\\n<!-- Navbar ======================================= -->\\n<nav class="navbar navbar-inverse navbar-fixed-top" role="navigation">\\n    <div class="container-fluid">\\n        <div class="navbar-header">\\n            <button type="button" class="navbar-toggle" data-toggle="collapse" data-target=".navbar-collapse">\\n                <span class="sr-only">Toggle navigation</span>\\n                <span class="icon-bar"></span>\\n                <span class="icon-bar"></span>\\n                <span class="icon-bar"></span>\\n            </button>\\n        \', escape=False)\nresponse.write(response.logo or \'\')\nresponse.write(\'\\n        </div>\\n        <div class="collapse navbar-collapse navbar-ex1-collapse">\\n            <ul class="nav navbar-nav navbar-right">\\n            \', escape=False)\nresponse.write(\'auth\' in globals() and auth.navbar(\'Welcome\',mode=\'dropdown\', referrer_actions=[\'register\', \'profile\']) or \'\')\nresponse.write(\'\\n            </ul>\\n        \', escape=False)\nif response.menu:\n    response.write(\'\\n            \', escape=False)\n    response.write(MENU(response.menu, _class=\'nav navbar-nav\',li_class=\'dropdown\',ul_class=\'dropdown-menu\'))\n    response.write(\'\\n        \', escape=False)\n    pass\nresponse.write(\'\\n        </div>\\n    </div>\\n</nav>\\n<!-- Masthead ===================================== -->\\n\', escape=False)\nresponse.write(\'\\n\', escape=False)\nresponse.write(\'\\n<!-- Main ========================================= -->\\n<!-- Begin page content -->\\n<div class="container-fluid main-container">\\n\', escape=False)\nif left_sidebar_enabled:\n    response.write(\'\\n    <div class="col-md-3 left-sidebar">\\n    \', escape=False)\n    response.write(\'\\n        <h3>Left Sidebar</h3>\\n\\n        <p></p>\\n    \', escape=False)\n    response.write(\'\\n    </div>\\n\', escape=False)\n    pass\nresponse.write(\'\\n\\n    <div class="\', escape=False)\nresponse.write(middle_column)\nresponse.write(\'">\\n    \', escape=False)\nresponse.write(\'\\n        \', escape=False)\nresponse.write(\'\\n<div class="mainLeft">\\n    <div class="divTitle">Largest comic-boxes</div>\\n    \', escape=False)\nfor box in largest_boxes:\n    response.write(\'\\n        \', escape=False)\n    response.write(\'<div class="comicbox">\\n    <div class="comicbox-title">\\n\\n        \', escape=False)\n    #=box.name\n    response.write(\'  \', escape=False)\n    #=box.created_on\n    response.write(\' \', escape=False)\n    #=box.count\n    response.write(\'\\n    </div>\\n\\n    <div class="comics-area">\\n        \', escape=False)\n    response.write(box.comicbook)\n    response.write(\'\\n        \', escape=False)\n    if box.count>0:\n        response.write(\'\\n            \', escape=False)\n        #=box.comicbook\n        response.write(\'\\n            \', escape=False)\n        #for comic in list(box.comicbook):\n        response.write(\'\\n                \', escape=False)\n        #=comic\n        response.write(\'\\n            \', escape=False)\n        #pass\n        response.write(\'\\n            <!--\\n                    <div class="comic-icon">\\n                            <img height="130" width="100" src="=URL(r=request, c=\\\'default\\\', f=\\\'fast_download\\\',  args=box.comicbook[0].cover, host=True)}}"/>\\n                    </div>\\n                    -->\\n            \', escape=False)\n        #pass\n        response.write(\'\\n        \', escape=False)\n    else:\n        response.write(\'\\n            Empty box\\n        \', escape=False)\n        pass\n    response.write(\'\\n    </div>\\n</div>\\n\\n\', escape=False)\n    response.write(\'\\n    \', escape=False)\n    pass\nresponse.write(\'\\n</div>\\n\\n<div class="mainRight">\\n    <div class="divTitle">Most recent comic-boxes</div>\\n\\n    \', escape=False)\n#if len(recent_boxes)>0:\nresponse.write(\'\\n        \', escape=False)\n#for box in recent_boxes:\nresponse.write(\'\\n            \', escape=False)\n#include "subviews/largecomicbox.html"\nresponse.write(\'\\n        \', escape=False)\n#pass\nresponse.write(\'\\n    \', escape=False)\n#pass\nresponse.write(\'\\n</div>\\n        <div style="clear:both">\\n    \', escape=False)\nresponse.write(largest_boxes[0])\nresponse.write(\'\\n            </div>\\n               <div style="clear:both">\\n            \', escape=False)\nresponse.write(recent_boxes[0])\nresponse.write(\'\\n                   </div>\', escape=False)\nresponse.write(\'\\n        \', escape=False)\nresponse.write(\'\\n    </div>\\n\\n\\n\', escape=False)\nif right_sidebar_enabled:\n    response.write(\'\\n    <div class="col-md-3">\\n    \', escape=False)\n    response.write(\'\\n        <h3>Right Sidebar</h3>\\n\\n        <p></p>\\n    \', escape=False)\n    response.write(\'\\n    </div>\\n\', escape=False)\n    pass\nresponse.write(\'\\n\\n</div>\\n\\n\', escape=False)\nresponse.write(\' <!-- this is default footer -->\\n<footer class="footer">\\n    <div class="container-fluid">\\n        <div class="copyright pull-left">\', escape=False)\nresponse.write(T(\'Copyright\'))\nresponse.write(\' &#169; \', escape=False)\nresponse.write(request.now.year)\nresponse.write(\'</div>\\n        <div id="poweredBy" class="pull-right">\\n        \', escape=False)\nresponse.write(T(\'Powered by\'))\nresponse.write(\'\\n            <a href="http://www.web2py.com/">web2py</a>\\n        </div>\\n    </div>\\n</footer>\\n\', escape=False)\nresponse.write(\'\\n<!-- The javascript =============================== -->\\n<script src="\', escape=False)\nresponse.write(URL(\'static\',\'js/bootstrap.min.js\'))\nresponse.write(\'"></script>\\n<script src="\', escape=False)\nresponse.write(URL(\'static\',\'js/web2py-bootstrap3.js\'))\nresponse.write(\'"></script>\\n\', escape=False)\nresponse.write(\'\\n<!-- Share ============================y============ -->\\n<script src="\', escape=False)\nresponse.write(URL(\'static\',\'js/share.js\',vars=dict(static=URL(\'static\',\'images\'))))\nresponse.write(\'"></script>\\n</body>\\n</html>\\n\', escape=False)'
p7
sS'snapshot'
p8
(dp9
sS'traceback'
p10
S'Traceback (most recent call last):\n  File "/home/miguel/Documents/IAPT/web2py/gluon/restricted.py", line 227, in restricted\n    exec ccode in environment\n  File "/home/miguel/Documents/IAPT/web2py/applications/IAPTassessment/views/default/index.html", line 90, in <module>\nAttributeError: \'tuple\' object has no attribute \'comicbook\'\n'
p11
s.