(dp1
S'output'
p2
S"<class 'pysqlite2.dbapi2.IntegrityError'> FOREIGN KEY constraint failed"
p3
sS'layer'
p4
S'/usr/userfs/m/mb1069/Downloads/IAPTassessment/web2py/applications/IAPTassessment/controllers/boxes.py'
p5
sS'code'
p6
S'import helper\n\n\ndef boxview():\n    #todo Deal with private boxes\n    box_comics = db((db.comicbox.id == request.vars.boxid) & (db.comicbook.box_id == request.vars.boxid)).select(\n                                    db.comicbook.id, db.comicbox.id,\n                                    db.comicbox.name, db.comicbook.title,\n                                    db.comicbook.cover, db.comicbook.issue_number,\n                                    db.comicbook.publisher, db.comicbook.description)\n    record = db.comicbox(request.vars.boxid)\n    form = SQLFORM(db.comicbox, record, deletable=True, submit_button="Update", delete_label="Check to delete")\n    form.vars.name = db(db.comicbox.id==request.vars.boxid).select(db.comicbox.id).column()[0]\n\n    if form.process().accepted:\n        response.flash = \'form accepted\'\n        if form.deleted:\n            helper.moveComicsToUnfiled(db, request.vars.boxid, auth.user_id)\n            response.flash = \'Box deleted!\'\n            redirect(URL(\'boxes\', \'myboxes\'))\n\n    user_comics_id = []\n    for row in box_comics:\n        user_comics_id.append(row.comicbook.id)\n    artist_comics = db(\n        (db.artist.id == db.comicArtist.artist_id) & (db.comicArtist.comicbook_id.belongs(user_comics_id))).select(\n        db.comicArtist.comicbook_id, db.artist.name)\n    writer_comics = db(\n        (db.writer.id == db.comicWriter.writer_id) & (db.comicWriter.comicbook_id.belongs(user_comics_id))).select(\n        db.comicWriter.comicbook_id, db.writer.name)\n\n    return {\'boxdetails\': db(db.comicbox.id == request.vars.boxid).select()[0],\n            \'box_comics\': box_comics,\n            \'artist_comics\': artist_comics,\n            \'writer_comics\': writer_comics,\n            \'form\': form}\n\n\ndef myboxes():\n    user_boxes = db(auth.user_id == db.comicbox.user_id).select(\n        db.comicbox.id,\n        db.comicbox.name,\n        db.comicbox.created_on,\n        groupby=db.comicbox.name)\n\n    boxes = []\n    for box in user_boxes:\n        comics = db(db.comicbook.box_id == box.id).select(db.comicbook.title,\n                                                          db.comicbook.cover, db.comicbook.description,\n                                                          db.comicbook.issue_number, db.comicbook.publisher)\n        box.count = len(comics)\n        boxes.append((box, comics))\n    return {\'user_boxes\': boxes}\n\nresponse._vars=response._caller(boxview)\n'
p7
sS'snapshot'
p8
(dp9
sS'traceback'
p10
S'Traceback (most recent call last):\n  File "/usr/userfs/m/mb1069/Downloads/IAPTassessment/web2py/gluon/restricted.py", line 227, in restricted\n    exec ccode in environment\n  File "/usr/userfs/m/mb1069/Downloads/IAPTassessment/web2py/applications/IAPTassessment/controllers/boxes.py", line 55, in <module>\n  File "/usr/userfs/m/mb1069/Downloads/IAPTassessment/web2py/gluon/globals.py", line 412, in <lambda>\n    self._caller = lambda f: f()\n  File "/usr/userfs/m/mb1069/Downloads/IAPTassessment/web2py/applications/IAPTassessment/controllers/boxes.py", line 15, in boxview\n    if form.process().accepted:\n  File "/usr/userfs/m/mb1069/Downloads/IAPTassessment/web2py/gluon/html.py", line 2301, in process\n    self.validate(**kwargs)\n  File "/usr/userfs/m/mb1069/Downloads/IAPTassessment/web2py/gluon/html.py", line 2238, in validate\n    if self.accepts(**kwargs):\n  File "/usr/userfs/m/mb1069/Downloads/IAPTassessment/web2py/gluon/sqlhtml.py", line 1561, in accepts\n    self.table._db(qry).delete()\n  File "/usr/userfs/m/mb1069/Downloads/IAPTassessment/web2py/gluon/packages/dal/pydal/objects.py", line 2022, in delete\n    ret = db._adapter.delete(tablename,self.query)\n  File "/usr/userfs/m/mb1069/Downloads/IAPTassessment/web2py/gluon/packages/dal/pydal/adapters/sqlite.py", line 104, in delete\n    counter = super(SQLiteAdapter, self).delete(tablename, query)\n  File "/usr/userfs/m/mb1069/Downloads/IAPTassessment/web2py/gluon/packages/dal/pydal/adapters/base.py", line 1042, in delete\n    self.execute(sql)\n  File "/usr/userfs/m/mb1069/Downloads/IAPTassessment/web2py/gluon/packages/dal/pydal/adapters/base.py", line 1378, in execute\n    return self.log_execute(*a, **b)\n  File "/usr/userfs/m/mb1069/Downloads/IAPTassessment/web2py/gluon/packages/dal/pydal/adapters/base.py", line 1372, in log_execute\n    ret = self.cursor.execute(command, *a[1:], **b)\nIntegrityError: FOREIGN KEY constraint failed\n'
p11
s.