(dp1
S'output'
p2
S"<type 'exceptions.AttributeError'> 'dict' object has no attribute 'publisher'"
p3
sS'layer'
p4
S'/home/miguel/Documents/IAPT/web2py/applications/IAPTassessment/models/fixtures.py'
p5
sS'code'
p6
S'# coding=utf-8\n\nimport os\n\n# db(db.comicbox.id > 0).delete()\n# db(db.comicbook.id > 0).delete()\n# db.comicArtist.truncate()\n# db.comicWriter.truncate()\n# db(db.publisher.id > 0).delete()\nimport random\n\ncrypt = CRYPT(key=auth.settings.hmac_key)\n# for i in range(1, 6):\n#     db.auth_user.insert(id=i, first_name=\'Test\', last_name=\'User %s\' % i, email=\'test_email_%s@sososofake.com\' % i, password=crypt(\'password%s\' % i)[0])\n#     db.auth_group.insert(id=i, role=\'user%s\' % i, description=\'Group uniquely assigned to user %s\' % i)\n#     db.auth_membership.insert(id=i, user_id=i, group_id=i)\n\ni = 1\nif db(db.auth_user.id >= 0).count() == 0:\n    for i in range(0, 5):\n        db.auth_user.insert(id=i, username=\'username%s\' % i, first_name=\'username%s\' % i, last_name=\'User %s\' % i, email=\'test_email_%s@sososofake.com\' % i,\n                        password=crypt(\'password%s\' % i)[0])\n\ntemplateComics = [\n    {"title": "The Uncanny X-MEN: Days of Future Past", "publisher": "Marvel Comics", "issue_number": "#141" ,"cover_path":"x-men-days-of-future-past.jpg" , "writers": ["Chris Claremont", "John Byrne"], "artists":["John Byrne", "Terry Austin"] ,"descrition": "Re-live the legendary first journey into the dystopian future of 2013 - where Sentinels stalk the Earth, and the X-Men are humanity\'s only hope...until they die! Also featuring the first appearance of Alpha Flight, the return of the Wendigo, the history of the X-Men from Cyclops himself...and a demon for Christmas!? "},\n    {"title": "Batman: The Dark Knight Returns", "publisher": "DC Comics", "issue_number": "#1", "cover_path": "dark_knight_returns.jpg", "writers": ["Frank Miller"], "artists": ["Frank Miller", "Klaus Janson", "Lynn Varley"], "description": "The Dark Knight Returns (alternatively titled Batman: The Dark Knight Returns) is a 1986 four-issue comic book miniseries starring Batman, written by Frank Miller, illustrated by Miller and Klaus Janson, and published by DC Comics. When the series was collected into a single volume later that year, the story title for the first issue was applied to the entire series. The Dark Knight Returns tells an alternative story of Bruce Wayne, who at 55 years old returns from retirement to fight crime and faces opposition from the Gotham City police force and the United States government. The story introduces Carrie Kelley as the new Robin and culminates with a confrontation against Superman."},\n    {"title": "All-Star Superman", "publisher": "DC Comics", "issue_number": "#1", "cover_path": "all-star-superman.jpg", "writers": ["Grant Morrison"], "artists": ["Frank Quitely", "Jamie Grant"], "description": "At a cultural moment of near-total Batman dominance, Grant Morrison and Frank Quitely released the defining Superman work of the new millennium: A 12-issue saga that weaves together the character\'s strange history into a mythic saga that deconstructs the Superman legend while hyperbolizing it into new, colorful directions."},\n    {"title": "Batman: Year One", "publisher": "DC Comics", "issue_number": "#404", "cover_path": "batman-year-one.jpg", "writers": ["Frank Miller"], "artists": ["David Mazzucchelli", "Richmond Lewis"], "description": "Year One is a Batman storyline written by Frank Miller with illustrations by Dave Mazzucchelli. It was published in 1987 through the Batman series, as a new origin story for the character. This is one of many Post-Crisis reboots, establishing the DCU\'s history following Crisis on Infinite Earths. It\'s considered to be the first canon Batman story in New Earth continuity."},\n    {"title": "Crisis on Infinite Earths", "publisher": "DC Comics", "issue_number": "#1", "cover_path": "crisis-on-infinite-earths.jpg", "writers": ["Marv Wolfman", "Robert Greenberger"], "artists": ["George Perez", "Dick Giordano", "Anthony Tollin"], "description": "This is the story that changed the DC Universe forever. A mysterious being known as the Anti-Monitor has begun a crusade across time to bring about the end of all existence. As alternate earths are systematically destroyed, the Monitor quickly assembles a team of super-heroes from across time and space to battle his counterpart and stop the destruction. DC\'s greatest heroes including Superman, Batman, Wonder Woman, Green Lantern, and Aquaman, assemble to stop the menace, but as they watch both the Flash and Supergirl die in battle, they begin to wonder if even all of the heroes in the world can stop this destructive force."},\n    {"title": "Kingdom Come", "publisher": "DC Comics", "issue_number": "#1", "cover_path": "kingdom-come.jpg", "writers": ["Mark Waid"], "artists": ["Alex Ross"], "description": "Kingdom Come was a four-issue limited series published from May until August of 1996 under DC\'s Elseworlds imprint. Like all Elseworlds, this series was set in an alternate reality outside that of the mainstream DC Universe. The series was written by Mark Waid with fully painted illustrations and covers by Alex Ross. All four issues were collected in both softcover and hardcover editions as well as a slipcase Absolute Edition."},\n    {"title": "DC: The New Frontier", "publisher": "DC Comics", "issue_number": "#1", "cover_path": "dc-the-new-frontier.jpg", "writers": ["Darwyn Cooke"], "artists": ["Dave Stewart"], "description": "Takes readers on an epic journey from the end of the Golden Age to the genesis of a bold new era for the super-hero, recounting the dawning of the DC Universe\'s Silver Age from the perspective of those brave individuals who made it happen."},\n    {"title": "The Judas Contract: Book One - The Eyes of Tara Markov!", "publisher": "DC Comics", "issue_number": "#42", "cover_path": "new-teen-titans-judas.jpg", "writers": ["Mark Wolfman"], "artists": ["George Perez", "Dick Giordano", "Adrienne Roy"], "description": "Donna and Kory finish up a photo shoot at Donna\'s studio. Gar, naturally, is overwhelmed by the skimpiness of Kory\'s bathing suit. Tara is present, and asks how Donna could afford such an expansive studio apartment. Donna tells her that it was a gift from Queen Hippolyta. What none of the Titans present realize is that someone is surreptitiously taking surveillance photos of Donna\'s studio...."},\n    {"title": "Batman: The Killing Joke", "publisher": "DC Comics", "issue_number": "#42", "cover_path": "batman-killing-joke.JPG", "writers": ["Alan Moore"], "artists": ["Brian Bolland"], "description": "Batman: The Killing Joke is an influential one-shot superhero comic book written by Alan Moore and drawn by Brian Bolland, published by DC Comics in 1988. It has in its original form continuously been held in print since then. It has also been reprinted as part of the DC Universe: The Stories of Alan Moore-trade paperback."},\n    {"title": "Superman: Whatever Happened to the Man of Tomorrow?", "publisher": "DC Comics", "issue_number": "#423", "cover_path": "superman-what-happened.jpg", "writers": ["Alan Moore"], "artists": ["Curt Swan", "George Perez", "Kurt Schaffenberger"], "description": "\\"Whatever Happened to the Man of Tomorrow?\\" is a 1986 comic book story featuring the DC Comics character of Superman. Written by Alan Moore with help from long-time Superman editor, Julius Schwartz, the story was published in two parts, beginning in Superman #423 and ending in Action Comics #583, both published in September 1986. The story was drawn by long-time artist Curt Swan, in his final major contribution to the Superman titles, and was inked by George P\xc3\xa9rez in the issue of Superman and Kurt Schaffenberger in the issue of Action Comics. The story was an imaginary tale which told the final story of the Silver Age Superman and his long history,[1] which was being rebooted following the events of Crisis on Infinite Earths, before his modern introduction in the John Byrne series, The Man of Steel."},\n    {"title": "The Man of Steel", "publisher": "DC Comics", "issue_number": "#1", "cover_path": "the-man-of-steel.png", "writers": ["John Byrne"], "artists": ["John Byrne", "Dick Giordano", "John Costanza"], "description": "The Man of Steel is a 1986 comic book limited series featuring the DC Comics character Superman. Written and drawn by John Byrne, the series was presented in six issues which were inked by Dick Giordano. The series told the story of Superman\'s modern origin, which had been rebooted following the 1986 series Crisis on Infinite Earths."},\n    {"title": "Snowbirds Don\'t Fly", "publisher": "DC Comics", "issue_number": "#85", "cover_path": "green-lantern.jpg", "writers": ["Dennis O\'Neil"], "artists": ["Neil Adams", "Dick Giordano"], "description": "In the first part (Green Lantern/Green Arrow #85), Green Arrow (Oliver Queen) runs into muggers who shoot him with a crossbow. Strangely, the weapon is loaded with his own arrows. Tracking down the attackers, Green Arrow and his best friend, Green Lantern Hal Jordan, find out that the muggers are junkies who need money for their addiction, and are surprised to find Queen\'s ward Speedy (Roy Harper) among them. They think he is working undercover to bust the junkies, but Queen catches him red-handed when he tries to shoot heroin. It becomes evident that the stolen arrows are indeed Queen\'s, which he shares with Harper when they fight crime together. In the second part (Green Lantern/Green Arrow #86), an enraged Green Arrow lashes out at his ward. In shame, Harper withdraws cold turkey, and one of the junkies dies of a drug overdose. Queen and Lantern tackle the kingpin of the drug ring, a pharmaceutics CEO who outwardly condemns drug abuse, and visit the funeral for the dead junkie."},\n    {"title": "Arkham Asylum: A Serious House on Serious Earth", "publisher": "DC Comics", "issue_number": "#42", "cover_path": "arkham.jpg", "writers": ["Grant Morrison"], "artists": ["Dave McKean"], "description": "Arkham Asylum: A Serious House on Serious Earth (often shortened to Batman: Arkham Asylum) is a Batman graphic novel written by Grant Morrison and illustrated by Dave McKean. It was originally published in the United States in both hardcover and softcover editions by DC Comics in 1989. The subtitle is taken from Philip Larkin\'s poem \\"Church Going.\\""},\n    ]\n\nif db(db.comicbox.id > 0).count() <6:\n    db.publisher.insert(user_id=1, name=\'DC\')\n    db.publisher.insert(user_id=1, name=\'Marvel Comics\')\n    for i in range(0, 5):\n        db.comicbox.insert(user_id=i, name=\'Box A\', private=False)\n        db.comicbox.insert(user_id=i, name=\'Box B\', private=False)\n        db.comicbox.insert(user_id=i, name=\'Box C\', private=False)\n        db.comicbox.insert(user_id=i, name=\'Box D\', private=False)\n        db.comicbox.insert(user_id=i, name=\'Box E\', private=False)\n        db.comicbox.insert(user_id=i, name=\'Box F\', private=False)\n\n    for c in range(0, 15):\n        i = random.randint(0, 24)\n        x = random.randint(0, len(templateComics))\n        comic = templateComics[x]\n        print comic.publisher\n        user_id = db(db.comicbox.id == i).select(db.comicbox.user_id).column()[0]\n        # Insert publisher\n        if len(db((db.publisher.name == comic.publisher) & (db.publisher.user_id == user_id)).select())==0:\n            publisher_id = db.publisher.insert(user_id=user_id, name=comic.publisher)\n        else:\n            publisher_id = db((db.publisher.name == comic.publisher) & (db.publisher.user_id == user_id)).select(db.publisher.id).column()[0]\n\n        comicId = db.comicbook.insert(box_id=i, title=comic.title, publisher=publisher_id,\n                                    issue_number=comic.issue_number, description=comic.description,\n                                    cover=open(os.path.join(os.path.dirname(__file__), \'../static/default_covers/\'+comic.cover)))\n        for artist in comic.artists:\n            if len(db((db.artist.name==artist) & (db.publisher.user_id==user_id)).select())==0:\n                artist_id = db.artist.insert(user_id=user_id, name=artist)\n            else:\n                artist_id = db((db.artist.name==artist) & (db.artist.user_id==user_id)).select(db.artist.id).column()[0]\n            db.comicArtist.insert(comicbook_id=comicId, artist_id=artist_id)\n\n        for writer in comic.writers:\n            if len(db((db.writer.name==writer) & (db.publisher.user_id==user_id)).select())==0:\n                writer_id = db.writer.insert(user_id=user_id, name=writer)\n            else:\n                writer_id = db((db.writer.name==writer) & (db.writer.user_id==user_id)).select(db.writer.id).column()[0]\n            db.comicWriter.insert(comicbook_id=comicId, writer_id=writer_id)\n\n    # db.comicbook.insert(box_id=5, title=\'Superman1\', publisher=1, issue_number=949, cover=open(cover_path), description=\'In the past, yet also in the future, in a land far far away in space...\')\n    # db.comicbook.insert(box_id=6, title=\'Superman2\', publisher=2, cover=open(cover_path))\n    # db.comicbook.insert(box_id=6, title=\'Superman2\', publisher=1, cover=open(cover_path))\n    # db.comicbook.insert(box_id=7, title=\'Superman3\', publisher=2, cover=open(cover_path))\n    # db.comicbook.insert(box_id=7, title=\'Superman3\', publisher=1, cover=open(cover_path))\n    # db.comicbook.insert(box_id=7, title=\'Superman3\', publisher=2, cover=open(cover_path))\n    # db.comicbook.insert(box_id=8, title=\'Superman4\', publisher=1, cover=open(cover_path))\n    # db.comicbook.insert(box_id=8, title=\'Superman4\', publisher=2, cover=open(cover_path))\n    # db.comicbook.insert(box_id=8, title=\'Superman4\', publisher=1, cover=open(cover_path))\n    # db.comicbook.insert(box_id=8, title=\'Superman4\', publisher=2, cover=open(cover_path))\n    # db.comicbook.insert(box_id=9, title=\'Superman5\', publisher=1, cover=open(cover_path))\n    # db.comicbook.insert(box_id=9, title=\'Superman5\', publisher=2, cover=open(cover_path))\n    # db.comicbook.insert(box_id=9, title=\'Superman5\', publisher=1, cover=open(cover_path))\n    # db.comicbook.insert(box_id=9, title=\'Superman5\', publisher=2, cover=open(cover_path))\n    # db.comicbook.insert(box_id=9, title=\'Superman5\', publisher=1, cover=open(cover_path))\n    # db.comicbook.insert(box_id=9, title=\'Superman6\', publisher=2, cover=open(cover_path))\n    # db.comicbook.insert(box_id=9, title=\'Superman6\', publisher=1, cover=open(cover_path))\n    # db.comicbook.insert(box_id=9, title=\'Superman6\', publisher=2, cover=open(cover_path))\n    # db.comicbook.insert(box_id=9, title=\'Superman6\', publisher=1, cover=open(cover_path))\n    # db.comicbook.insert(box_id=9, title=\'Superman6\', publisher=2, cover=open(cover_path))\n    # db.comicbook.insert(box_id=9, title=\'Superman6\', publisher=1, cover=open(cover_path))\n    # db.comicbook.insert(box_id=9, title=\'Superman6\', publisher=2, cover=open(cover_path))\n\n\n    # db.artist.insert(user_id=1, name=\'Artsy\')\n    # db.artist.insert(user_id=1, name=\'Art\')\n    # db.comicArtist.insert(comicbook_id=1, artist_id=1)\n    # db.comicArtist.insert(comicbook_id=1, artist_id=2)\n    # db.writer.insert(user_id=1, name=\'Writsy\')\n    # db.writer.insert(user_id=1, name=\'Writ\')\n    # db.comicWriter.insert(comicbook_id=1, writer_id=1)\n    # db.comicWriter.insert(comicbook_id=1, writer_id=2)\n'
p7
sS'snapshot'
p8
(dp9
S'exception'
p10
(dp11
S'__hash__'
p12
S"<method-wrapper '__hash__' of exceptions.AttributeError object>"
p13
sS'__setattr__'
p14
S"<method-wrapper '__setattr__' of exceptions.AttributeError object>"
p15
sS'__reduce_ex__'
p16
S'<built-in method __reduce_ex__ of exceptions.AttributeError object>'
p17
sS'__getslice__'
p18
S"<method-wrapper '__getslice__' of exceptions.AttributeError object>"
p19
sS'__getitem__'
p20
S"<method-wrapper '__getitem__' of exceptions.AttributeError object>"
p21
sS'__setstate__'
p22
S'<built-in method __setstate__ of exceptions.AttributeError object>'
p23
sS'args'
p24
S'("\'dict\' object has no attribute \'publisher\'",)'
p25
sS'__reduce__'
p26
S'<built-in method __reduce__ of exceptions.AttributeError object>'
p27
sS'__str__'
p28
S"<method-wrapper '__str__' of exceptions.AttributeError object>"
p29
sS'__format__'
p30
S'<built-in method __format__ of exceptions.AttributeError object>'
p31
sS'__getattribute__'
p32
S"<method-wrapper '__getattribute__' of exceptions.AttributeError object>"
p33
sS'__class__'
p34
S"<type 'exceptions.AttributeError'>"
p35
sS'__unicode__'
p36
S'<built-in method __unicode__ of exceptions.AttributeError object>'
p37
sS'__delattr__'
p38
S"<method-wrapper '__delattr__' of exceptions.AttributeError object>"
p39
sS'__subclasshook__'
p40
S'<built-in method __subclasshook__ of type object>'
p41
sS'__repr__'
p42
S"<method-wrapper '__repr__' of exceptions.AttributeError object>"
p43
sS'__dict__'
p44
S'{}'
p45
sS'__sizeof__'
p46
S'<built-in method __sizeof__ of exceptions.AttributeError object>'
p47
sS'__doc__'
p48
S"'Attribute not found.'"
p49
sS'__init__'
p50
S"<method-wrapper '__init__' of exceptions.AttributeError object>"
p51
sS'__new__'
p52
S'<built-in method __new__ of type object>'
p53
ssS'evalue'
p54
S"'dict' object has no attribute 'publisher'"
p55
sS'request'
p56
cgluon.html
XML_unpickle
p57
(S's\xca^\x00\x00<div><table><tr><td style="font-weight:bold;vertical-align:top;">ajax</td><td style="vertical-align:top;">:</td><td><div>False</div></td></tr><tr><td style="font-weight:bold;vertical-align:top;">application</td><td style="vertical-align:top;">:</td><td><div>IAPTassessment</div></td></tr><tr><td style="font-weight:bold;vertical-align:top;">args</td><td style="vertical-align:top;">:</td><td><div><table></table></div></td></tr><tr><td style="font-weight:bold;vertical-align:top;">cid</td><td style="vertical-align:top;">:</td><td><div>None</div></td></tr><tr><td style="font-weight:bold;vertical-align:top;">client</td><td style="vertical-align:top;">:</td><td><div>127.0.0.1</div></td></tr><tr><td style="font-weight:bold;vertical-align:top;">controller</td><td style="vertical-align:top;">:</td><td><div>default</div></td></tr><tr><td style="font-weight:bold;vertical-align:top;">cookies</td><td style="vertical-align:top;">:</td><td><div><table><tr><td style="font-weight:bold;vertical-align:top;">history</td><td style="vertical-align:top;">:</td><td><div>Built-in<table><tr><td style="font-weight:bold;vertical-align:top;">comment</td><td style="vertical-align:top;">:</td><td><div></div></td></tr><tr><td style="font-weight:bold;vertical-align:top;">domain</td><td style="vertical-align:top;">:</td><td><div></div></td></tr><tr><td style="font-weight:bold;vertical-align:top;">expires</td><td style="vertical-align:top;">:</td><td><div></div></td></tr><tr><td style="font-weight:bold;vertical-align:top;">httponly</td><td style="vertical-align:top;">:</td><td><div></div></td></tr><tr><td style="font-weight:bold;vertical-align:top;">max-age</td><td style="vertical-align:top;">:</td><td><div></div></td></tr><tr><td style="font-weight:bold;vertical-align:top;">path</td><td style="vertical-align:top;">:</td><td><div></div></td></tr><tr><td style="font-weight:bold;vertical-align:top;">secure</td><td style="vertical-align:top;">:</td><td><div></div></td></tr><tr><td style="font-weight:bold;vertical-align:top;">version</td><td style="vertical-align:top;">:</td><td><div></div></td></tr></table></div></td></tr><tr><td style="font-weight:bold;vertical-align:top;">session_id_admin</td><td style="vertical-align:top;">:</td><td><div>127.0.0.1-98fcc1a5-d5c5-47cf-a492-eda2cacc9163<table><tr><td style="font-weight:bold;vertical-align:top;">comment</td><td style="vertical-align:top;">:</td><td><div></div></td></tr><tr><td style="font-weight:bold;vertical-align:top;">domain</td><td style="vertical-align:top;">:</td><td><div></div></td></tr><tr><td style="font-weight:bold;vertical-align:top;">expires</td><td style="vertical-align:top;">:</td><td><div></div></td></tr><tr><td style="font-weight:bold;vertical-align:top;">httponly</td><td style="vertical-align:top;">:</td><td><div></div></td></tr><tr><td style="font-weight:bold;vertical-align:top;">max-age</td><td style="vertical-align:top;">:</td><td><div></div></td></tr><tr><td style="font-weight:bold;vertical-align:top;">path</td><td style="vertical-align:top;">:</td><td><div></div></td></tr><tr><td style="font-weight:bold;vertical-align:top;">secure</td><td style="vertical-align:top;">:</td><td><div></div></td></tr><tr><td style="font-weight:bold;vertical-align:top;">version</td><td style="vertical-align:top;">:</td><td><div></div></td></tr></table></div></td></tr><tr><td style="font-weight:bold;vertical-align:top;">session_id_iaptassessment</td><td style="vertical-align:top;">:</td><td><div>127.0.0.1-373b3876-5a38-4b3e-b285-2a899828cb8a<table><tr><td style="font-weight:bold;vertical-align:top;">comment</td><td style="vertical-align:top;">:</td><td><div></div></td></tr><tr><td style="font-weight:bold;vertical-align:top;">domain</td><td style="vertical-align:top;">:</td><td><div></div></td></tr><tr><td style="font-weight:bold;vertical-align:top;">expires</td><td style="vertical-align:top;">:</td><td><div></div></td></tr><tr><td style="font-weight:bold;vertical-align:top;">httponly</td><td style="vertical-align:top;">:</td><td><div></div></td></tr><tr><td style="font-weight:bold;vertical-align:top;">max-age</td><td style="vertical-align:top;">:</td><td><div></div></td></tr><tr><td style="font-weight:bold;vertical-align:top;">path</td><td style="vertical-align:top;">:</td><td><div></div></td></tr><tr><td style="font-weight:bold;vertical-align:top;">secure</td><td style="vertical-align:top;">:</td><td><div></div></td></tr><tr><td style="font-weight:bold;vertical-align:top;">version</td><td style="vertical-align:top;">:</td><td><div></div></td></tr></table></div></td></tr></table></div></td></tr><tr><td style="font-weight:bold;vertical-align:top;">env</td><td style="vertical-align:top;">:</td><td><div><table><tr><td style="font-weight:bold;vertical-align:top;">HTTP_ACCEPT</td><td style="vertical-align:top;">:</td><td><div>text/html,application/xhtml+xml,application/xml;q=0.9,image/webp,*/*;q=0.8</div></td></tr><tr><td style="font-weight:bold;vertical-align:top;">HTTP_ACCEPT_ENCODING</td><td style="vertical-align:top;">:</td><td><div>gzip, deflate, sdch</div></td></tr><tr><td style="font-weight:bold;vertical-align:top;">HTTP_ACCEPT_LANGUAGE</td><td style="vertical-align:top;">:</td><td><div>en-GB,en;q=0.8,fr;q=0.6</div></td></tr><tr><td style="font-weight:bold;vertical-align:top;">HTTP_CACHE_CONTROL</td><td style="vertical-align:top;">:</td><td><div>no-cache</div></td></tr><tr><td style="font-weight:bold;vertical-align:top;">HTTP_CONNECTION</td><td style="vertical-align:top;">:</td><td><div>keep-alive</div></td></tr><tr><td style="font-weight:bold;vertical-align:top;">HTTP_COOKIE</td><td style="vertical-align:top;">:</td><td><div>history=Built-in Tools$Docs,Built-in Tools$Dashboard; session_id_iaptassessment=127.0.0.1-373b3876-5a38-4b3e-b285-2a899828cb8a; session_id_admin=127.0.0.1-98fcc1a5-d5c5-47cf-a492-eda2cacc9163</div></td></tr><tr><td style="font-weight:bold;vertical-align:top;">HTTP_DNT</td><td style="vertical-align:top;">:</td><td><div>1</div></td></tr><tr><td style="font-weight:bold;vertical-align:top;">HTTP_HOST</td><td style="vertical-align:top;">:</td><td><div>127.0.0.1:8000</div></td></tr><tr><td style="font-weight:bold;vertical-align:top;">HTTP_PRAGMA</td><td style="vertical-align:top;">:</td><td><div>no-cache</div></td></tr><tr><td style="font-weight:bold;vertical-align:top;">HTTP_REFERER</td><td style="vertical-align:top;">:</td><td><div>http://127.0.0.1:8000/IAPTassessment/boxes/myboxes</div></td></tr><tr><td style="font-weight:bold;vertical-align:top;">HTTP_UPGRADE_INSECURE_REQUESTS</td><td style="vertical-align:top;">:</td><td><div>1</div></td></tr><tr><td style="font-weight:bold;vertical-align:top;">HTTP_USER_AGENT</td><td style="vertical-align:top;">:</td><td><div>Mozilla/5.0 (X11; Linux x86_64) AppleWebKit/537.36 (KHTML, like Gecko) Chrome/46.0.2490.86 Safari/537.36</div></td></tr><tr><td style="font-weight:bold;vertical-align:top;">PATH_INFO</td><td style="vertical-align:top;">:</td><td><div>/IAPTassessment/default/index</div></td></tr><tr><td style="font-weight:bold;vertical-align:top;">QUERY_STRING</td><td style="vertical-align:top;">:</td><td><div></div></td></tr><tr><td style="font-weight:bold;vertical-align:top;">REMOTE_ADDR</td><td style="vertical-align:top;">:</td><td><div>127.0.0.1</div></td></tr><tr><td style="font-weight:bold;vertical-align:top;">REMOTE_PORT</td><td style="vertical-align:top;">:</td><td><div>51686</div></td></tr><tr><td style="font-weight:bold;vertical-align:top;">REQUEST_METHOD</td><td style="vertical-align:top;">:</td><td><div>GET</div></td></tr><tr><td style="font-weight:bold;vertical-align:top;">SCRIPT_NAME</td><td style="vertical-align:top;">:</td><td><div></div></td></tr><tr><td style="font-weight:bold;vertical-align:top;">SERVER_NAME</td><td style="vertical-align:top;">:</td><td><div>miguel-MS-7851</div></td></tr><tr><td style="font-weight:bold;vertical-align:top;">SERVER_PORT</td><td style="vertical-align:top;">:</td><td><div>8000</div></td></tr><tr><td style="font-weight:bold;vertical-align:top;">SERVER_PROTOCOL</td><td style="vertical-align:top;">:</td><td><div>HTTP/1.1</div></td></tr><tr><td style="font-weight:bold;vertical-align:top;">SERVER_SOFTWARE</td><td style="vertical-align:top;">:</td><td><div>Rocket 1.2.6</div></td></tr><tr><td style="font-weight:bold;vertical-align:top;">app_folders</td><td style="vertical-align:top;">:</td><td><div>set([&#x27;/home/miguel/Documents/IAPT/web2py/applications/IAPTassessment/&#x27;])</div></td></tr><tr><td style="font-weight:bold;vertical-align:top;">applications_parent</td><td style="vertical-align:top;">:</td><td><div>/home/miguel/Documents/IAPT/web2py</div></td></tr><tr><td style="font-weight:bold;vertical-align:top;">cmd_args</td><td style="vertical-align:top;">:</td><td><div><table></table></div></td></tr><tr><td style="font-weight:bold;vertical-align:top;">cmd_options</td><td style="vertical-align:top;">:</td><td><div>&lt;Values at 0x7f9503495f38: {&#x27;verbose&#x27;: False, &#x27;ip&#x27;: &#x27;127.0.0.1&#x27;, &#x27;debuglevel&#x27;: 30, &#x27;with_scheduler&#x27;: False, &#x27;ips&#x27;: [&#x27;127.0.1.1&#x27;], &#x27;shutdown_timeout&#x27;: 5, &#x27;taskbar&#x27;: False, &#x27;with_coverage&#x27;: False, &#x27;scheduler_groups&#x27;: None, &#x27;port&#x27;: 8000, &#x27;maxthreads&#x27;: None, &#x27;softcron&#x27;: False, &#x27;server_name&#x27;: &#x27;miguel-MS-7851&#x27;, &#x27;bpython&#x27;: False, &#x27;nogui&#x27;: False, &#x27;pid_filename&#x27;: &#x27;httpserver.pid&#x27;, &#x27;print_errors&#x27;: False, &#x27;extcron&#x27;: False, &#x27;runcron&#x27;: False, &#x27;run_system_tests&#x27;: False, &#x27;test&#x27;: None, &#x27;folder&#x27;: &#x27;/home/miguel/Documents/IAPT/web2py&#x27;, &#x27;config&#x27;: &#x27;&#x27;, &#x27;minthreads&#x27;: None, &#x27;shell&#x27;: None, &#x27;run&#x27;: &#x27;&#x27;, &#x27;log_filename&#x27;: &#x27;httpserver.log&#x27;, &#x27;profiler_dir&#x27;: None, &#x27;args&#x27;: [&#x27;&#x27;], &#x27;socket_timeout&#x27;: 5, &#x27;ssl_ca_certificate&#x27;: None, &#x27;scheduler&#x27;: None, &#x27;interfaces&#x27;: None, &#x27;ssl_private_key&#x27;: &#x27;&#x27;, &#x27;gae&#x27;: None, &#x27;password&#x27;: &#x27;aa&#x27;, &#x27;request_queue_size&#x27;: 5, &#x27;ssl_certificate&#x27;: &#x27;&#x27;, &#x27;cronjob&#x27;: False, &#x27;numthreads&#x27;: None, &#x27;quiet&#x27;: False, &#x27;import_models&#x27;: False, &#x27;timeout&#x27;: 10, &#x27;plain&#x27;: False, &#x27;nobanner&#x27;: False}&gt;</div></td></tr><tr><td style="font-weight:bold;vertical-align:top;">db_sessions</td><td style="vertical-align:top;">:</td><td><div>set([])</div></td></tr><tr><td style="font-weight:bold;vertical-align:top;">debugging</td><td style="vertical-align:top;">:</td><td><div>False</div></td></tr><tr><td style="font-weight:bold;vertical-align:top;">gluon_parent</td><td style="vertical-align:top;">:</td><td><div>/home/miguel/Documents/IAPT/web2py</div></td></tr><tr><td style="font-weight:bold;vertical-align:top;">http_accept</td><td style="vertical-align:top;">:</td><td><div>text/html,application/xhtml+xml,application/xml;q=0.9,image/webp,*/*;q=0.8</div></td></tr><tr><td style="font-weight:bold;vertical-align:top;">http_accept_encoding</td><td style="vertical-align:top;">:</td><td><div>gzip, deflate, sdch</div></td></tr><tr><td style="font-weight:bold;vertical-align:top;">http_accept_language</td><td style="vertical-align:top;">:</td><td><div>en-GB,en;q=0.8,fr;q=0.6</div></td></tr><tr><td style="font-weight:bold;vertical-align:top;">http_cache_control</td><td style="vertical-align:top;">:</td><td><div>no-cache</div></td></tr><tr><td style="font-weight:bold;vertical-align:top;">http_connection</td><td style="vertical-align:top;">:</td><td><div>keep-alive</div></td></tr><tr><td style="font-weight:bold;vertical-align:top;">http_cookie</td><td style="vertical-align:top;">:</td><td><div>history=Built-in Tools$Docs,Built-in Tools$Dashboard; session_id_iaptassessment=127.0.0.1-373b3876-5a38-4b3e-b285-2a899828cb8a; session_id_admin=127.0.0.1-98fcc1a5-d5c5-47cf-a492-eda2cacc9163</div></td></tr><tr><td style="font-weight:bold;vertical-align:top;">http_dnt</td><td style="vertical-align:top;">:</td><td><div>1</div></td></tr><tr><td style="font-weight:bold;vertical-align:top;">http_host</td><td style="vertical-align:top;">:</td><td><div>127.0.0.1:8000</div></td></tr><tr><td style="font-weight:bold;vertical-align:top;">http_pragma</td><td style="vertical-align:top;">:</td><td><div>no-cache</div></td></tr><tr><td style="font-weight:bold;vertical-align:top;">http_referer</td><td style="vertical-align:top;">:</td><td><div>http://127.0.0.1:8000/IAPTassessment/boxes/myboxes</div></td></tr><tr><td style="font-weight:bold;vertical-align:top;">http_upgrade_insecure_requests</td><td style="vertical-align:top;">:</td><td><div>1</div></td></tr><tr><td style="font-weight:bold;vertical-align:top;">http_user_agent</td><td style="vertical-align:top;">:</td><td><div>Mozilla/5.0 (X11; Linux x86_64) AppleWebKit/537.36 (KHTML, like Gecko) Chrome/46.0.2490.86 Safari/537.36</div></td></tr><tr><td style="font-weight:bold;vertical-align:top;">is_jython</td><td style="vertical-align:top;">:</td><td><div>False</div></td></tr><tr><td style="font-weight:bold;vertical-align:top;">is_pypy</td><td style="vertical-align:top;">:</td><td><div>False</div></td></tr><tr><td style="font-weight:bold;vertical-align:top;">is_source</td><td style="vertical-align:top;">:</td><td><div>True</div></td></tr><tr><td style="font-weight:bold;vertical-align:top;">local_hosts</td><td style="vertical-align:top;">:</td><td><div><table><tr><td><div>miguel-MS-7851</div></td></tr><tr><td><div>::1</div></td></tr><tr><td><div>127.0.1.1</div></td></tr><tr><td><div>::ffff:127.0.0.1</div></td></tr><tr><td><div>127.0.0.1</div></td></tr></table></div></td></tr><tr><td style="font-weight:bold;vertical-align:top;">path_info</td><td style="vertical-align:top;">:</td><td><div>/IAPTassessment/default/index</div></td></tr><tr><td style="font-weight:bold;vertical-align:top;">query_string</td><td style="vertical-align:top;">:</td><td><div></div></td></tr><tr><td style="font-weight:bold;vertical-align:top;">remote_addr</td><td style="vertical-align:top;">:</td><td><div>127.0.0.1</div></td></tr><tr><td style="font-weight:bold;vertical-align:top;">remote_port</td><td style="vertical-align:top;">:</td><td><div>51686</div></td></tr><tr><td style="font-weight:bold;vertical-align:top;">request_method</td><td style="vertical-align:top;">:</td><td><div>GET</div></td></tr><tr><td style="font-weight:bold;vertical-align:top;">request_uri</td><td style="vertical-align:top;">:</td><td><div>/IAPTassessment/default/index</div></td></tr><tr><td style="font-weight:bold;vertical-align:top;">script_name</td><td style="vertical-align:top;">:</td><td><div></div></td></tr><tr><td style="font-weight:bold;vertical-align:top;">server_name</td><td style="vertical-align:top;">:</td><td><div>miguel-MS-7851</div></td></tr><tr><td style="font-weight:bold;vertical-align:top;">server_port</td><td style="vertical-align:top;">:</td><td><div>8000</div></td></tr><tr><td style="font-weight:bold;vertical-align:top;">server_protocol</td><td style="vertical-align:top;">:</td><td><div>HTTP/1.1</div></td></tr><tr><td style="font-weight:bold;vertical-align:top;">server_software</td><td style="vertical-align:top;">:</td><td><div>Rocket 1.2.6</div></td></tr><tr><td style="font-weight:bold;vertical-align:top;">web2py_path</td><td style="vertical-align:top;">:</td><td><div>/home/miguel/Documents/IAPT/web2py</div></td></tr><tr><td style="font-weight:bold;vertical-align:top;">web2py_version</td><td style="vertical-align:top;">:</td><td><div>2.12.3-stable+timestamp.2015.08.19.00.18.03</div></td></tr><tr><td style="font-weight:bold;vertical-align:top;">wsgi.errors</td><td style="vertical-align:top;">:</td><td><div>&lt;open file &#x27;&lt;stderr&gt;&#x27;, mode &#x27;w&#x27; at 0x7f95181b41e0&gt;</div></td></tr><tr><td style="font-weight:bold;vertical-align:top;">wsgi.file_wrapper</td><td style="vertical-align:top;">:</td><td><div>&lt;class wsgiref.util.FileWrapper at 0x7f95034aa3f8&gt;</div></td></tr><tr><td style="font-weight:bold;vertical-align:top;">wsgi.input</td><td style="vertical-align:top;">:</td><td><div>&lt;socket._fileobject object at 0x7f95106c8350&gt;</div></td></tr><tr><td style="font-weight:bold;vertical-align:top;">wsgi.multiprocess</td><td style="vertical-align:top;">:</td><td><div>False</div></td></tr><tr><td style="font-weight:bold;vertical-align:top;">wsgi.multithread</td><td style="vertical-align:top;">:</td><td><div>True</div></td></tr><tr><td style="font-weight:bold;vertical-align:top;">wsgi.run_once</td><td style="vertical-align:top;">:</td><td><div>False</div></td></tr><tr><td style="font-weight:bold;vertical-align:top;">wsgi.url_scheme</td><td style="vertical-align:top;">:</td><td><div>http</div></td></tr><tr><td style="font-weight:bold;vertical-align:top;">wsgi.version</td><td style="vertical-align:top;">:</td><td><div><table><tr><td><div>1</div></td></tr><tr><td><div>0</div></td></tr></table></div></td></tr><tr><td style="font-weight:bold;vertical-align:top;">wsgi_errors</td><td style="vertical-align:top;">:</td><td><div>&lt;open file &#x27;&lt;stderr&gt;&#x27;, mode &#x27;w&#x27; at 0x7f95181b41e0&gt;</div></td></tr><tr><td style="font-weight:bold;vertical-align:top;">wsgi_file_wrapper</td><td style="vertical-align:top;">:</td><td><div>&lt;class wsgiref.util.FileWrapper at 0x7f95034aa3f8&gt;</div></td></tr><tr><td style="font-weight:bold;vertical-align:top;">wsgi_input</td><td style="vertical-align:top;">:</td><td><div>&lt;socket._fileobject object at 0x7f95106c8350&gt;</div></td></tr><tr><td style="font-weight:bold;vertical-align:top;">wsgi_multiprocess</td><td style="vertical-align:top;">:</td><td><div>False</div></td></tr><tr><td style="font-weight:bold;vertical-align:top;">wsgi_multithread</td><td style="vertical-align:top;">:</td><td><div>True</div></td></tr><tr><td style="font-weight:bold;vertical-align:top;">wsgi_run_once</td><td style="vertical-align:top;">:</td><td><div>False</div></td></tr><tr><td style="font-weight:bold;vertical-align:top;">wsgi_url_scheme</td><td style="vertical-align:top;">:</td><td><div>http</div></td></tr><tr><td style="font-weight:bold;vertical-align:top;">wsgi_version</td><td style="vertical-align:top;">:</td><td><div><table><tr><td><div>1</div></td></tr><tr><td><div>0</div></td></tr></table></div></td></tr></table></div></td></tr><tr><td style="font-weight:bold;vertical-align:top;">extension</td><td style="vertical-align:top;">:</td><td><div>html</div></td></tr><tr><td style="font-weight:bold;vertical-align:top;">folder</td><td style="vertical-align:top;">:</td><td><div>/home/miguel/Documents/IAPT/web2py/applications/IAPTassessment/</div></td></tr><tr><td style="font-weight:bold;vertical-align:top;">function</td><td style="vertical-align:top;">:</td><td><div>index</div></td></tr><tr><td style="font-weight:bold;vertical-align:top;">global_settings</td><td style="vertical-align:top;">:</td><td><div><table><tr><td style="font-weight:bold;vertical-align:top;">app_folders</td><td style="vertical-align:top;">:</td><td><div>set([&#x27;/home/miguel/Documents/IAPT/web2py/applications/IAPTassessment/&#x27;])</div></td></tr><tr><td style="font-weight:bold;vertical-align:top;">applications_parent</td><td style="vertical-align:top;">:</td><td><div>/home/miguel/Documents/IAPT/web2py</div></td></tr><tr><td style="font-weight:bold;vertical-align:top;">cmd_args</td><td style="vertical-align:top;">:</td><td><div><table></table></div></td></tr><tr><td style="font-weight:bold;vertical-align:top;">cmd_options</td><td style="vertical-align:top;">:</td><td><div>&lt;Values at 0x7f9503495f38: {&#x27;verbose&#x27;: False, &#x27;ip&#x27;: &#x27;127.0.0.1&#x27;, &#x27;debuglevel&#x27;: 30, &#x27;with_scheduler&#x27;: False, &#x27;ips&#x27;: [&#x27;127.0.1.1&#x27;], &#x27;shutdown_timeout&#x27;: 5, &#x27;taskbar&#x27;: False, &#x27;with_coverage&#x27;: False, &#x27;scheduler_groups&#x27;: None, &#x27;port&#x27;: 8000, &#x27;maxthreads&#x27;: None, &#x27;softcron&#x27;: False, &#x27;server_name&#x27;: &#x27;miguel-MS-7851&#x27;, &#x27;bpython&#x27;: False, &#x27;nogui&#x27;: False, &#x27;pid_filename&#x27;: &#x27;httpserver.pid&#x27;, &#x27;print_errors&#x27;: False, &#x27;extcron&#x27;: False, &#x27;runcron&#x27;: False, &#x27;run_system_tests&#x27;: False, &#x27;test&#x27;: None, &#x27;folder&#x27;: &#x27;/home/miguel/Documents/IAPT/web2py&#x27;, &#x27;config&#x27;: &#x27;&#x27;, &#x27;minthreads&#x27;: None, &#x27;shell&#x27;: None, &#x27;run&#x27;: &#x27;&#x27;, &#x27;log_filename&#x27;: &#x27;httpserver.log&#x27;, &#x27;profiler_dir&#x27;: None, &#x27;args&#x27;: [&#x27;&#x27;], &#x27;socket_timeout&#x27;: 5, &#x27;ssl_ca_certificate&#x27;: None, &#x27;scheduler&#x27;: None, &#x27;interfaces&#x27;: None, &#x27;ssl_private_key&#x27;: &#x27;&#x27;, &#x27;gae&#x27;: None, &#x27;password&#x27;: &#x27;aa&#x27;, &#x27;request_queue_size&#x27;: 5, &#x27;ssl_certificate&#x27;: &#x27;&#x27;, &#x27;cronjob&#x27;: False, &#x27;numthreads&#x27;: None, &#x27;quiet&#x27;: False, &#x27;import_models&#x27;: False, &#x27;timeout&#x27;: 10, &#x27;plain&#x27;: False, &#x27;nobanner&#x27;: False}&gt;</div></td></tr><tr><td style="font-weight:bold;vertical-align:top;">db_sessions</td><td style="vertical-align:top;">:</td><td><div>set([])</div></td></tr><tr><td style="font-weight:bold;vertical-align:top;">debugging</td><td style="vertical-align:top;">:</td><td><div>False</div></td></tr><tr><td style="font-weight:bold;vertical-align:top;">gluon_parent</td><td style="vertical-align:top;">:</td><td><div>/home/miguel/Documents/IAPT/web2py</div></td></tr><tr><td style="font-weight:bold;vertical-align:top;">is_jython</td><td style="vertical-align:top;">:</td><td><div>False</div></td></tr><tr><td style="font-weight:bold;vertical-align:top;">is_pypy</td><td style="vertical-align:top;">:</td><td><div>False</div></td></tr><tr><td style="font-weight:bold;vertical-align:top;">is_source</td><td style="vertical-align:top;">:</td><td><div>True</div></td></tr><tr><td style="font-weight:bold;vertical-align:top;">local_hosts</td><td style="vertical-align:top;">:</td><td><div><table><tr><td><div>miguel-MS-7851</div></td></tr><tr><td><div>::1</div></td></tr><tr><td><div>127.0.1.1</div></td></tr><tr><td><div>::ffff:127.0.0.1</div></td></tr><tr><td><div>127.0.0.1</div></td></tr></table></div></td></tr><tr><td style="font-weight:bold;vertical-align:top;">web2py_version</td><td style="vertical-align:top;">:</td><td><div>2.12.3-stable+timestamp.2015.08.19.00.18.03</div></td></tr></table></div></td></tr><tr><td style="font-weight:bold;vertical-align:top;">is_https</td><td style="vertical-align:top;">:</td><td><div>False</div></td></tr><tr><td style="font-weight:bold;vertical-align:top;">is_local</td><td style="vertical-align:top;">:</td><td><div>True</div></td></tr><tr><td style="font-weight:bold;vertical-align:top;">is_restful</td><td style="vertical-align:top;">:</td><td><div>False</div></td></tr><tr><td style="font-weight:bold;vertical-align:top;">is_sheduler</td><td style="vertical-align:top;">:</td><td><div>None</div></td></tr><tr><td style="font-weight:bold;vertical-align:top;">is_shell</td><td style="vertical-align:top;">:</td><td><div>None</div></td></tr><tr><td style="font-weight:bold;vertical-align:top;">now</td><td style="vertical-align:top;">:</td><td><div>datetime.datetime(2015, 12, 1, 0, 46, 28, 149111)</div></td></tr><tr><td style="font-weight:bold;vertical-align:top;">raw_args</td><td style="vertical-align:top;">:</td><td><div></div></td></tr><tr><td style="font-weight:bold;vertical-align:top;">raw_extension</td><td style="vertical-align:top;">:</td><td><div>None</div></td></tr><tr><td style="font-weight:bold;vertical-align:top;">url</td><td style="vertical-align:top;">:</td><td><div>/IAPTassessment/default/index</div></td></tr><tr><td style="font-weight:bold;vertical-align:top;">utcnow</td><td style="vertical-align:top;">:</td><td><div>datetime.datetime(2015, 12, 1, 0, 46, 28, 149121)</div></td></tr><tr><td style="font-weight:bold;vertical-align:top;">wsgi</td><td style="vertical-align:top;">:</td><td><div>&lt;gluon.main.LazyWSGI object at 0x7f9516936710&gt;</div></td></tr></table></div>'
tRp58
sS'frames'
p59
(lp60
(dp61
S'file'
p62
S'/home/miguel/Documents/IAPT/web2py/gluon/restricted.py'
p63
sS'dump'
p64
(dp65
S'environment'
p66
S"{'A': <class 'gluon.html.A'>, 'ANY_OF': <class 'gluon.validators.ANY_OF'>, 'ASSIGNJS': <function ASSIGNJS>, 'AppConfig': <function AppConfig>, 'Auth': <class 'gluon.tools.Auth'>, 'B': <class 'gluon.html.B'>, 'BEAUTIFY': <class 'gluon.html.BEAUTIFY'>, 'BODY': <class 'gluon.html.BODY'>, 'BR': <class 'gluon.html.BR'>, 'BUTTON': <class 'gluon.html.BUTTON'>, ...}"
p67
sS'ccode'
p68
S'<code object <module> at 0x7f95106c8430, file "/...tions/IAPTassessment/models/fixtures.py", line 3>'
p69
ssS'lnum'
p70
I227
sS'lines'
p71
(dp72
I224
S'            ccode = code'
p73
sI225
S'        else:'
p74
sI226
S'            ccode = compile2(code, layer)'
p75
sI227
S'        exec ccode in environment'
p76
sI228
S'    except HTTP:'
p77
sI229
S'        raise'
p78
sI230
S'    except RestrictedError:'
p79
sI231
S'        # do not encapsulate (obfuscate) the original RestrictedError'
p80
sI222
S'    try:'
p81
sI223
S'        if isinstance(code, types.CodeType):'
p82
ssS'call'
p83
S"(code='# coding=utf-8\\n\\nimport os\\n\\n# db(db.comicbox.id >....comicWriter.insert(comicbook_id=1, writer_id=2)\\n', environment={'A': <class 'gluon.html.A'>, 'ANY_OF': <class 'gluon.validators.ANY_OF'>, 'ASSIGNJS': <function ASSIGNJS>, 'AppConfig': <function AppConfig>, 'Auth': <class 'gluon.tools.Auth'>, 'B': <class 'gluon.html.B'>, 'BEAUTIFY': <class 'gluon.html.BEAUTIFY'>, 'BODY': <class 'gluon.html.BODY'>, 'BR': <class 'gluon.html.BR'>, 'BUTTON': <class 'gluon.html.BUTTON'>, ...}, layer='/home/miguel/Documents/IAPT/web2py/applications/IAPTassessment/models/fixtures.py')"
p84
sS'func'
p85
S'restricted'
p86
sa(dp87
g62
S'/home/miguel/Documents/IAPT/web2py/applications/IAPTassessment/models/fixtures.py'
p88
sg64
(dp89
S'comic'
p90
S"{'artists': ['Alex Ross'], 'cover_path': 'kingdom-come.jpg', 'description': 'Kingdom Come was a four-issue limited series pub... editions as well as a slipcase Absolute Edition.', 'issue_number': '#1', 'publisher': 'DC Comics', 'title': 'Kingdom Come', 'writers': ['Mark Waid']}"
p91
ssg70
I55
sg71
(dp92
I50
S''
sI51
S'    for c in range(0, 15):'
p93
sI52
S'        i = random.randint(0, 24)'
p94
sI53
S'        x = random.randint(0, len(templateComics))'
p95
sI54
S'        comic = templateComics[x]'
p96
sI55
S"        print comic['publisher']"
p97
sI56
S'        user_id = db(db.comicbox.id == i).select(db.comicbox.user_id).column()[0]'
p98
sI57
S'        # Insert publisher'
p99
sI58
S'        if len(db((db.publisher.name == comic.publisher) & (db.publisher.user_id == user_id)).select())==0:'
p100
sI59
S'            publisher_id = db.publisher.insert(user_id=user_id, name=comic.publisher)'
p101
ssg83
S'()'
p102
sg85
S'<module>'
p103
sasS'pyver'
p104
S'Python 2.7.9: /usr/bin/python2.7 (prefix: /usr)'
p105
sS'session'
p106
g57
(S's\x04\t\x00\x00<div><table><tr><td style="font-weight:bold;vertical-align:top;">auth</td><td style="vertical-align:top;">:</td><td><div><table><tr><td style="font-weight:bold;vertical-align:top;">expiration</td><td style="vertical-align:top;">:</td><td><div>2592000</div></td></tr><tr><td style="font-weight:bold;vertical-align:top;">hmac_key</td><td style="vertical-align:top;">:</td><td><div>816c07bd-ad9e-4f43-84b0-5f453d63127e</div></td></tr><tr><td style="font-weight:bold;vertical-align:top;">last_visit</td><td style="vertical-align:top;">:</td><td><div>datetime.datetime(2015, 11, 30, 23, 23, 27, 980651)</div></td></tr><tr><td style="font-weight:bold;vertical-align:top;">remember_me</td><td style="vertical-align:top;">:</td><td><div>True</div></td></tr><tr><td style="font-weight:bold;vertical-align:top;">user</td><td style="vertical-align:top;">:</td><td><div><table><tr><td style="font-weight:bold;vertical-align:top;">email</td><td style="vertical-align:top;">:</td><td><div>test_email_1@sososofake.com</div></td></tr><tr><td style="font-weight:bold;vertical-align:top;">first_name</td><td style="vertical-align:top;">:</td><td><div>username1</div></td></tr><tr><td style="font-weight:bold;vertical-align:top;">id</td><td style="vertical-align:top;">:</td><td><div>1L</div></td></tr><tr><td style="font-weight:bold;vertical-align:top;">last_name</td><td style="vertical-align:top;">:</td><td><div>User 1</div></td></tr><tr><td style="font-weight:bold;vertical-align:top;">registration_id</td><td style="vertical-align:top;">:</td><td><div></div></td></tr><tr><td style="font-weight:bold;vertical-align:top;">registration_key</td><td style="vertical-align:top;">:</td><td><div></div></td></tr><tr><td style="font-weight:bold;vertical-align:top;">reset_password_key</td><td style="vertical-align:top;">:</td><td><div></div></td></tr><tr><td style="font-weight:bold;vertical-align:top;">username</td><td style="vertical-align:top;">:</td><td><div>username1</div></td></tr></table></div></td></tr><tr><td style="font-weight:bold;vertical-align:top;">user_groups</td><td style="vertical-align:top;">:</td><td><div><table></table></div></td></tr></table></div></td></tr><tr><td style="font-weight:bold;vertical-align:top;">flash</td><td style="vertical-align:top;">:</td><td><div>None</div></td></tr></table></div>'
tRp107
sS'etype'
p108
S"<type 'exceptions.AttributeError'>"
p109
sS'date'
p110
S'Tue Dec  1 00:46:47 2015'
p111
sS'response'
p112
g57
(S's>\x18\x00\x00<div><table><tr><td style="font-weight:bold;vertical-align:top;">body</td><td style="vertical-align:top;">:</td><td><div>&lt;cStringIO.StringO object at 0x7f9503473fb8&gt;</div></td></tr><tr><td style="font-weight:bold;vertical-align:top;">cookies</td><td style="vertical-align:top;">:</td><td><div><table><tr><td style="font-weight:bold;vertical-align:top;">session_id_iaptassessment</td><td style="vertical-align:top;">:</td><td><div>127.0.0.1-373b3876-5a38-4b3e-b285-2a899828cb8a<table><tr><td style="font-weight:bold;vertical-align:top;">comment</td><td style="vertical-align:top;">:</td><td><div></div></td></tr><tr><td style="font-weight:bold;vertical-align:top;">domain</td><td style="vertical-align:top;">:</td><td><div></div></td></tr><tr><td style="font-weight:bold;vertical-align:top;">expires</td><td style="vertical-align:top;">:</td><td><div></div></td></tr><tr><td style="font-weight:bold;vertical-align:top;">httponly</td><td style="vertical-align:top;">:</td><td><div></div></td></tr><tr><td style="font-weight:bold;vertical-align:top;">max-age</td><td style="vertical-align:top;">:</td><td><div></div></td></tr><tr><td style="font-weight:bold;vertical-align:top;">path</td><td style="vertical-align:top;">:</td><td><div>/</div></td></tr><tr><td style="font-weight:bold;vertical-align:top;">secure</td><td style="vertical-align:top;">:</td><td><div></div></td></tr><tr><td style="font-weight:bold;vertical-align:top;">version</td><td style="vertical-align:top;">:</td><td><div></div></td></tr></table></div></td></tr></table></div></td></tr><tr><td style="font-weight:bold;vertical-align:top;">delimiters</td><td style="vertical-align:top;">:</td><td><div><table><tr><td><div>{{</div></td></tr><tr><td><div>}}</div></td></tr></table></div></td></tr><tr><td style="font-weight:bold;vertical-align:top;">files</td><td style="vertical-align:top;">:</td><td><div><table></table></div></td></tr><tr><td style="font-weight:bold;vertical-align:top;">flash</td><td style="vertical-align:top;">:</td><td><div></div></td></tr><tr><td style="font-weight:bold;vertical-align:top;">form_label_separator</td><td style="vertical-align:top;">:</td><td><div></div></td></tr><tr><td style="font-weight:bold;vertical-align:top;">formstyle</td><td style="vertical-align:top;">:</td><td><div>bootstrap3_inline</div></td></tr><tr><td style="font-weight:bold;vertical-align:top;">generic_patterns</td><td style="vertical-align:top;">:</td><td><div><table><tr><td><div>*</div></td></tr></table></div></td></tr><tr><td style="font-weight:bold;vertical-align:top;">headers</td><td style="vertical-align:top;">:</td><td><div><table><tr><td style="font-weight:bold;vertical-align:top;">X-Powered-By</td><td style="vertical-align:top;">:</td><td><div>web2py</div></td></tr></table></div></td></tr><tr><td style="font-weight:bold;vertical-align:top;">menu</td><td style="vertical-align:top;">:</td><td><div><table></table></div></td></tr><tr><td style="font-weight:bold;vertical-align:top;">meta</td><td style="vertical-align:top;">:</td><td><div><table></table></div></td></tr><tr><td style="font-weight:bold;vertical-align:top;">models_to_run</td><td style="vertical-align:top;">:</td><td><div><table><tr><td><div>^\\w+\\.py$</div></td></tr><tr><td><div>^default/\\w+\\.py$</div></td></tr><tr><td><div>^default/index/\\w+\\.py$</div></td></tr></table></div></td></tr><tr><td style="font-weight:bold;vertical-align:top;">postprocessing</td><td style="vertical-align:top;">:</td><td><div><table></table></div></td></tr><tr><td style="font-weight:bold;vertical-align:top;">session_client</td><td style="vertical-align:top;">:</td><td><div>127.0.0.1</div></td></tr><tr><td style="font-weight:bold;vertical-align:top;">session_cookie_compression_level</td><td style="vertical-align:top;">:</td><td><div>None</div></td></tr><tr><td style="font-weight:bold;vertical-align:top;">session_cookie_expires</td><td style="vertical-align:top;">:</td><td><div>2592000</div></td></tr><tr><td style="font-weight:bold;vertical-align:top;">session_cookie_key</td><td style="vertical-align:top;">:</td><td><div>None</div></td></tr><tr><td style="font-weight:bold;vertical-align:top;">session_data_name</td><td style="vertical-align:top;">:</td><td><div>session_data_iaptassessment</div></td></tr><tr><td style="font-weight:bold;vertical-align:top;">session_file</td><td style="vertical-align:top;">:</td><td><div>&lt;open file &#x27;/home/miguel/Documents/IAPT/web2py/applications/IAPTassessment/sessions/00e/195/127.0.0.1-373b3876-5a38-4b3e-b285-2a899828cb8a&#x27;, mode &#x27;rb+&#x27; at 0x7f94fc157420&gt;</div></td></tr><tr><td style="font-weight:bold;vertical-align:top;">session_filename</td><td style="vertical-align:top;">:</td><td><div>/home/miguel/Documents/IAPT/web2py/applications/IAPTassessment/sessions/127.0.0.1-373b3876-5a38-4b3e-b285-2a899828cb8a</div></td></tr><tr><td style="font-weight:bold;vertical-align:top;">session_hash</td><td style="vertical-align:top;">:</td><td><div>0032624ebf74b6946ba1001b3979e0d6</div></td></tr><tr><td style="font-weight:bold;vertical-align:top;">session_id</td><td style="vertical-align:top;">:</td><td><div>127.0.0.1-373b3876-5a38-4b3e-b285-2a899828cb8a</div></td></tr><tr><td style="font-weight:bold;vertical-align:top;">session_id_name</td><td style="vertical-align:top;">:</td><td><div>session_id_iaptassessment</div></td></tr><tr><td style="font-weight:bold;vertical-align:top;">session_locked</td><td style="vertical-align:top;">:</td><td><div>True</div></td></tr><tr><td style="font-weight:bold;vertical-align:top;">session_masterapp</td><td style="vertical-align:top;">:</td><td><div>IAPTassessment</div></td></tr><tr><td style="font-weight:bold;vertical-align:top;">session_new</td><td style="vertical-align:top;">:</td><td><div>False</div></td></tr><tr><td style="font-weight:bold;vertical-align:top;">session_storage_type</td><td style="vertical-align:top;">:</td><td><div>file</div></td></tr><tr><td style="font-weight:bold;vertical-align:top;">status</td><td style="vertical-align:top;">:</td><td><div>200</div></td></tr><tr><td style="font-weight:bold;vertical-align:top;">view</td><td style="vertical-align:top;">:</td><td><div>default/index.html</div></td></tr></table></div>'
tRp113
sS'locals'
p114
(dp115
S'Service'
p116
S"<class 'gluon.tools.Service'>"
p117
sS'OBJECT'
p118
S"<class 'gluon.html.OBJECT'>"
p119
sS'SQLDB'
p120
S"<class 'pydal.base.DAL'>"
p121
sg106
S"<Storage {'_formkey[comicbook/create]': ['f4c24a...x/9]': ['3230424b-6beb-4080-8b79-11c6c88c3040']}>"
p122
sS'LINK'
p123
S"<class 'gluon.html.LINK'>"
p124
sS'BR'
p125
S"<class 'gluon.html.BR'>"
p126
sS'local_import'
p127
S'<function <lambda>>'
p128
sS'OPTGROUP'
p129
S"<class 'gluon.html.OPTGROUP'>"
p130
sS'LI'
p131
S"<class 'gluon.html.LI'>"
p132
sS'PRE'
p133
S"<class 'gluon.html.PRE'>"
p134
sS'IS_INT_IN_RANGE'
p135
S"<class 'gluon.validators.IS_INT_IN_RANGE'>"
p136
sS'IS_LOWER'
p137
S"<class 'gluon.validators.IS_LOWER'>"
p138
sS'IS_STRONG'
p139
S"<class 'gluon.validators.IS_STRONG'>"
p140
sS'addUnfiledBox'
p141
S'<function addUnfiledBox>'
p142
sS'cache'
p143
S'<gluon.cache.Cache object>'
p144
sS'IS_IN_DB'
p145
S"<class 'gluon.validators.IS_IN_DB'>"
p146
sS'TAG'
p147
S'<gluon.html.__TAG__ object>'
p148
sS'SQLField'
p149
S"<class 'pydal.objects.Field'>"
p150
sS'mail'
p151
S'<gluon.tools.Mail object>'
p152
sS'BODY'
p153
S"<class 'gluon.html.BODY'>"
p154
sS'IS_DATE_IN_RANGE'
p155
S"<class 'gluon.validators.IS_DATE_IN_RANGE'>"
p156
sS'random'
p157
S"<module 'random' from '/usr/lib/python2.7/random.pyc'>"
p158
sS'TH'
p159
S"<class 'gluon.html.TH'>"
p160
sS'URL'
p161
S'<function URL>'
p162
sS'__file__'
p163
S"'/home/miguel/Documents/IAPT/web2py/applications/IAPTassessment/models/fixtures.py'"
p164
sS'db'
p165
S'<DAL uri="sqlite://storage.sqlite">'
p166
sS'auth'
p167
S'<gluon.tools.Auth object>'
p168
sS'P'
S"<class 'gluon.html.P'>"
p169
sS'TFOOT'
p170
S"<class 'gluon.html.TFOOT'>"
p171
sS'XHTML'
p172
S"<class 'gluon.html.XHTML'>"
p173
sS'ON'
p174
S'True'
p175
sS'OL'
p176
S"<class 'gluon.html.OL'>"
p177
sS'TEXTAREA'
p178
S"<class 'gluon.html.TEXTAREA'>"
p179
sS'MENU'
p180
S"<class 'gluon.html.MENU'>"
p181
sS'x'
S'5'
sS'LOAD'
p182
S'<function LOAD>'
p183
sS'CODE'
p184
S"<class 'gluon.html.CODE'>"
p185
sS'HTTP'
p186
S"<class 'gluon.http.HTTP'>"
p187
sS'HR'
p188
S"<class 'gluon.html.HR'>"
p189
sS'IS_DATETIME'
p190
S"<class 'gluon.validators.IS_DATETIME'>"
p191
sS'HEAD'
p192
S"<class 'gluon.html.HEAD'>"
p193
sS'LABEL'
p194
S"<class 'gluon.html.LABEL'>"
p195
sS'META'
p196
S"<class 'gluon.html.META'>"
p197
sS'plugins'
p198
S'<gluon.tools.PluginManager object>'
p199
sS'SELECT'
p200
S"<class 'gluon.html.SELECT'>"
p201
sS'CENTER'
p202
S"<class 'gluon.html.CENTER'>"
p203
sS'Auth'
p204
S"<class 'gluon.tools.Auth'>"
p205
sS'__builtins__'
p206
S"{'ArithmeticError': <type 'exceptions.ArithmeticError'>, 'AssertionError': <type 'exceptions.AssertionError'>, 'AttributeError': <type 'exceptions.AttributeError'>, 'BaseException': <type 'exceptions.BaseException'>, 'BufferError': <type 'exceptions.BufferError'>, 'BytesWarning': <type 'exceptions.BytesWarning'>, 'DeprecationWarning': <type 'exceptions.DeprecationWarning'>, 'EOFError': <type 'exceptions.EOFError'>, 'Ellipsis': Ellipsis, 'EnvironmentError': <type 'exceptions.EnvironmentError'>, ...}"
p207
sS'HTML'
p208
S"<class 'gluon.html.HTML'>"
p209
sS'SQLFORM'
p210
S"<class 'gluon.sqlhtml.SQLFORM'>"
p211
sS'EM'
p212
S"<class 'gluon.html.EM'>"
p213
sS'redirect'
p214
S'<function redirect>'
p215
sS'FIELDSET'
p216
S"<class 'gluon.html.FIELDSET'>"
p217
sS'IS_EQUAL_TO'
p218
S"<class 'gluon.validators.IS_EQUAL_TO'>"
p219
sS'embed64'
p220
S'<function embed64>'
p221
sS'IS_LIST_OF'
p222
S"<class 'gluon.validators.IS_LIST_OF'>"
p223
sS'__name__'
p224
S"'__restricted__'"
p225
sS'EMBED'
p226
S"<class 'gluon.html.EMBED'>"
p227
sS'FORM'
p228
S"<class 'gluon.html.FORM'>"
p229
sS'c'
S'0'
sS'CLEANUP'
p230
S"<class 'gluon.validators.CLEANUP'>"
p231
sS'myconf'
p232
S"{'forms': {'formstyle': 'bootstrap3_inline', 'se...'you@gmail.com', 'server': 'smtp.gmail.com:587'}}"
p233
sS'H2'
p234
S"<class 'gluon.html.H2'>"
p235
sS'H3'
p236
S"<class 'gluon.html.H3'>"
p237
sS'AppConfig'
p238
S'<function AppConfig>'
p239
sS'H1'
p240
S"<class 'gluon.html.H1'>"
p241
sS'H6'
p242
S"<class 'gluon.html.H6'>"
p243
sS'H4'
p244
S"<class 'gluon.html.H4'>"
p245
sS'H5'
p246
S"<class 'gluon.html.H5'>"
p247
sS'UL'
p248
S"<class 'gluon.html.UL'>"
p249
sS'IS_UPPER'
p250
S"<class 'gluon.validators.IS_UPPER'>"
p251
sS'xmlescape'
p252
S'<function xmlescape>'
p253
sS'IS_TIME'
p254
S"<class 'gluon.validators.IS_TIME'>"
p255
sS'os'
p256
S"<module 'os' from '/usr/lib/python2.7/os.pyc'>"
p257
sS'OPTION'
p258
S"<class 'gluon.html.OPTION'>"
p259
sS'TITLE'
p260
S"<class 'gluon.html.TITLE'>"
p261
sS'CRYPT'
p262
S"<class 'gluon.validators.CRYPT'>"
p263
sS'IS_EMPTY_OR'
p264
S"<class 'gluon.validators.IS_EMPTY_OR'>"
p265
sS'MARKMIN'
p266
S"<class 'gluon.html.MARKMIN'>"
p267
sS'INPUT'
p268
S"<class 'gluon.html.INPUT'>"
p269
sS'comic'
p270
S"{'artists': ['Alex Ross'], 'cover_path': 'kingdom-come.jpg', 'description': 'Kingdom Come was a four-issue limited series pub... editions as well as a slipcase Absolute Edition.', 'issue_number': '#1', 'publisher': 'DC Comics', 'title': 'Kingdom Come', 'writers': ['Mark Waid']}"
p271
sS'STRONG'
p272
S"<class 'gluon.html.STRONG'>"
p273
sS'COL'
p274
S"<class 'gluon.html.COL'>"
p275
sS'service'
p276
S'<gluon.tools.Service object>'
p277
sS'SCRIPT'
p278
S"<class 'gluon.html.SCRIPT'>"
p279
sS'TABLE'
p280
S"<class 'gluon.html.TABLE'>"
p281
sS'IS_IPV4'
p282
S"<class 'gluon.validators.IS_IPV4'>"
p283
sS'IS_LENGTH'
p284
S"<class 'gluon.validators.IS_LENGTH'>"
p285
sS'IS_IPV6'
p286
S"<class 'gluon.validators.IS_IPV6'>"
p287
sS'XML'
p288
S"<class 'gluon.html.XML'>"
p289
sS'B'
S"<class 'gluon.html.B'>"
p290
sS'IMG'
p291
S"<class 'gluon.html.IMG'>"
p292
sS'SQLTABLE'
p293
S"<class 'gluon.sqlhtml.SQLTABLE'>"
p294
sS'IS_MATCH'
p295
S"<class 'gluon.validators.IS_MATCH'>"
p296
sS'IS_ALPHANUMERIC'
p297
S"<class 'gluon.validators.IS_ALPHANUMERIC'>"
p298
sS'SPAN'
p299
S"<class 'gluon.html.SPAN'>"
p300
sS'IS_JSON'
p301
S"<class 'gluon.validators.IS_JSON'>"
p302
sS'IS_IPADDRESS'
p303
S"<class 'gluon.validators.IS_IPADDRESS'>"
p304
sS'IS_SLUG'
p305
S"<class 'gluon.validators.IS_SLUG'>"
p306
sS'BEAUTIFY'
p307
S"<class 'gluon.html.BEAUTIFY'>"
p308
sS'BUTTON'
p309
S"<class 'gluon.html.BUTTON'>"
p310
sS'IS_DATE'
p311
S"<class 'gluon.validators.IS_DATE'>"
p312
sS'IS_EMAIL'
p313
S"<class 'gluon.validators.IS_EMAIL'>"
p314
sS'IS_NOT_EMPTY'
p315
S"<class 'gluon.validators.IS_NOT_EMPTY'>"
p316
sS'IS_FLOAT_IN_RANGE'
p317
S"<class 'gluon.validators.IS_FLOAT_IN_RANGE'>"
p318
sS'templateComics'
p319
S'[{\'artists\': [\'John Byrne\', \'Terry Austin\'], \'cover_path\': \'x-men-days-of-future-past.jpg\', \'descrition\': \'Re-live the legendary first journey into the dys...om Cyclops himself...and a demon for Christmas!? \', \'issue_number\': \'#141\', \'publisher\': \'Marvel Comics\', \'title\': \'The Uncanny X-MEN: Days of Future Past\', \'writers\': [\'Chris Claremont\', \'John Byrne\']}, {\'artists\': [\'Frank Miller\', \'Klaus Janson\', \'Lynn Varley\'], \'cover_path\': \'dark_knight_returns.jpg\', \'description\': \'The Dark Knight Returns (alternatively titled Ba...culminates with a confrontation against Superman.\', \'issue_number\': \'#1\', \'publisher\': \'DC Comics\', \'title\': \'Batman: The Dark Knight Returns\', \'writers\': [\'Frank Miller\']}, {\'artists\': [\'Frank Quitely\', \'Jamie Grant\'], \'cover_path\': \'all-star-superman.jpg\', \'description\': \'At a cultural moment of near-total Batman domina...e hyperbolizing it into new, colorful directions.\', \'issue_number\': \'#1\', \'publisher\': \'DC Comics\', \'title\': \'All-Star Superman\', \'writers\': [\'Grant Morrison\']}, {\'artists\': [\'David Mazzucchelli\', \'Richmond Lewis\'], \'cover_path\': \'batman-year-one.jpg\', \'description\': \'Year One is a Batman storyline written by Frank ...first canon Batman story in New Earth continuity.\', \'issue_number\': \'#404\', \'publisher\': \'DC Comics\', \'title\': \'Batman: Year One\', \'writers\': [\'Frank Miller\']}, {\'artists\': [\'George Perez\', \'Dick Giordano\', \'Anthony Tollin\'], \'cover_path\': \'crisis-on-infinite-earths.jpg\', \'description\': \'This is the story that changed the DC Universe f...oes in the world can stop this destructive force.\', \'issue_number\': \'#1\', \'publisher\': \'DC Comics\', \'title\': \'Crisis on Infinite Earths\', \'writers\': [\'Marv Wolfman\', \'Robert Greenberger\']}, {\'artists\': [\'Alex Ross\'], \'cover_path\': \'kingdom-come.jpg\', \'description\': \'Kingdom Come was a four-issue limited series pub... editions as well as a slipcase Absolute Edition.\', \'issue_number\': \'#1\', \'publisher\': \'DC Comics\', \'title\': \'Kingdom Come\', \'writers\': [\'Mark Waid\']}, {\'artists\': [\'Dave Stewart\'], \'cover_path\': \'dc-the-new-frontier.jpg\', \'description\': \'Takes readers on an epic journey from the end of...ve of those brave individuals who made it happen.\', \'issue_number\': \'#1\', \'publisher\': \'DC Comics\', \'title\': \'DC: The New Frontier\', \'writers\': [\'Darwyn Cooke\']}, {\'artists\': [\'George Perez\', \'Dick Giordano\', \'Adrienne Roy\'], \'cover_path\': \'new-teen-titans-judas.jpg\', \'description\': "Donna and Kory finish up a photo shoot at Donna\'... taking surveillance photos of Donna\'s studio....", \'issue_number\': \'#42\', \'publisher\': \'DC Comics\', \'title\': \'The Judas Contract: Book One - The Eyes of Tara Markov!\', \'writers\': [\'Mark Wolfman\']}, {\'artists\': [\'Brian Bolland\'], \'cover_path\': \'batman-killing-joke.JPG\', \'description\': \'Batman: The Killing Joke is an influential one-s...verse: The Stories of Alan Moore-trade paperback.\', \'issue_number\': \'#42\', \'publisher\': \'DC Comics\', \'title\': \'Batman: The Killing Joke\', \'writers\': [\'Alan Moore\']}, {\'artists\': [\'Curt Swan\', \'George Perez\', \'Kurt Schaffenberger\'], \'cover_path\': \'superman-what-happened.jpg\', \'description\': \'"Whatever Happened to the Man of Tomorrow?" is a...ction in the John Byrne series, The Man of Steel.\', \'issue_number\': \'#423\', \'publisher\': \'DC Comics\', \'title\': \'Superman: Whatever Happened to the Man of Tomorrow?\', \'writers\': [\'Alan Moore\']}, {\'artists\': [\'John Byrne\', \'Dick Giordano\', \'John Costanza\'], \'cover_path\': \'the-man-of-steel.png\', \'description\': \'The Man of Steel is a 1986 comic book limited se...lowing the 1986 series Crisis on Infinite Earths.\', \'issue_number\': \'#1\', \'publisher\': \'DC Comics\', \'title\': \'The Man of Steel\', \'writers\': [\'John Byrne\']}, {\'artists\': [\'Neil Adams\', \'Dick Giordano\'], \'cover_path\': \'green-lantern.jpg\', \'description\': \'In the first part (Green Lantern/Green Arrow #85...abuse, and visit the funeral for the dead junkie.\', \'issue_number\': \'#85\', \'publisher\': \'DC Comics\', \'title\': "Snowbirds Don\'t Fly", \'writers\': ["Dennis O\'Neil"]}, {\'artists\': [\'Dave McKean\'], \'cover_path\': \'arkham.jpg\', \'description\': \'Arkham Asylum: A Serious House on Serious Earth ...s taken from Philip Larkin\\\'s poem "Church Going."\', \'issue_number\': \'#42\', \'publisher\': \'DC Comics\', \'title\': \'Arkham Asylum: A Serious House on Serious Earth\', \'writers\': [\'Grant Morrison\']}]'
p320
sS'TBODY'
p321
S"<class 'gluon.html.TBODY'>"
p322
sS'CAT'
p323
S"<class 'gluon.html.CAT'>"
p324
sS'Field'
p325
S"<class 'pydal.objects.Field'>"
p326
sS'IS_LIST_OF_EMAILS'
p327
S"<class 'gluon.validators.IS_LIST_OF_EMAILS'>"
p328
sS'DIV'
p329
S"<class 'gluon.html.DIV'>"
p330
sS'LEGEND'
p331
S"<class 'gluon.html.LEGEND'>"
p332
sS'COLGROUP'
p333
S"<class 'gluon.html.COLGROUP'>"
p334
sS'DAL'
p335
S"<class 'pydal.base.DAL'>"
p336
sS'crypt'
p337
S'<gluon.validators.CRYPT object>'
p338
sS'ASSIGNJS'
p339
S'<function ASSIGNJS>'
p340
sS'TR'
p341
S"<class 'gluon.html.TR'>"
p342
sS'__package__'
p343
S'None'
p344
sS'IFRAME'
p345
S"<class 'gluon.html.IFRAME'>"
p346
sS'TD'
p347
S"<class 'gluon.html.TD'>"
p348
sS'PluginManager'
p349
S"<class 'gluon.tools.PluginManager'>"
p350
sS'IS_URL'
p351
S"<class 'gluon.validators.IS_URL'>"
p352
sS'A'
S"<class 'gluon.html.A'>"
p353
sS'STYLE'
p354
S"<class 'gluon.html.STYLE'>"
p355
sS'IS_DATETIME_IN_RANGE'
p356
S"<class 'gluon.validators.IS_DATETIME_IN_RANGE'>"
p357
sS'IS_IMAGE'
p358
S"<class 'gluon.validators.IS_IMAGE'>"
p359
sS'I'
S"<class 'gluon.html.I'>"
p360
sS'IS_NOT_IN_DB'
p361
S"<class 'gluon.validators.IS_NOT_IN_DB'>"
p362
sg112
S"<Storage {'body': <cStringIO.StringO object at 0...t 0x7f94fc152aa0>, 'view': 'default/index.html'}>"
p363
sS'THEAD'
p364
S"<class 'gluon.html.THEAD'>"
p365
sS'ANY_OF'
p366
S"<class 'gluon.validators.ANY_OF'>"
p367
sS'IS_NULL_OR'
p368
S"<class 'gluon.validators.IS_EMPTY_OR'>"
p369
sS'i'
S'14'
p370
sg56
S"<Storage {'_vars': <Storage {}>, 'function': 'in...ments/IAPT/web2py/applications/IAPTassessment/'}>"
p371
sS'IS_EXPR'
p372
S"<class 'gluon.validators.IS_EXPR'>"
p373
sS'IS_IN_SET'
p374
S"<class 'gluon.validators.IS_IN_SET'>"
p375
sS'IS_UPLOAD_FILENAME'
p376
S"<class 'gluon.validators.IS_UPLOAD_FILENAME'>"
p377
sS'IS_DECIMAL_IN_RANGE'
p378
S"<class 'gluon.validators.IS_DECIMAL_IN_RANGE'>"
p379
sS'TT'
p380
S"<class 'gluon.html.TT'>"
p381
sS'T'
S'<gluon.languages.translator object>'
p382
sssS'traceback'
p383
S'Traceback (most recent call last):\n  File "/home/miguel/Documents/IAPT/web2py/gluon/restricted.py", line 227, in restricted\n    exec ccode in environment\n  File "/home/miguel/Documents/IAPT/web2py/applications/IAPTassessment/models/fixtures.py", line 55, in <module>\n    print comic[\'publisher\']\nAttributeError: \'dict\' object has no attribute \'publisher\'\n'
p384
s.