(dp1
S'output'
p2
S"<type 'exceptions.NameError'> name 'form' is not defined"
p3
sS'layer'
p4
S'/usr/userfs/m/mb1069/Downloads/IAPTassessment/web2py/applications/IAPTassessment/views/boxes/boxview.html'
p5
sS'code'
p6
S'response.write(\'<!DOCTYPE html>\\n\\n<!--[if (gt IE 9)|!(IE)]><!-->\\n<html class="no-js" lang="\', escape=False)\nresponse.write(T.accepted_language or \'en\')\nresponse.write(\'"> <!--<![endif]-->\\n\\n<head>\\n    <meta charset="utf-8">\\n    <!-- www.phpied.com/conditional-comments-block-downloads/ -->\\n    <!-- Always force latest IE rendering engine\\n         (even in intranet) & Chrome Frame\\n         Remove this if you use the .htaccess -->\\n    <meta http-equiv="X-UA-Compatible" content="IE=edge\', escape=False)\nresponse.write(not request.is_local and \',chrome=1\' or \'\')\nresponse.write(\'">\\n    <!--  Mobile Viewport Fix\\n          j.mp/mobileviewport & davidbcalhoun.com/2010/viewport-metatag\\n          device-width: Occupy full width of the screen in its current orientation\\n          initial-scale = 1.0 retains dimensions instead of zooming out if page height > device height\\n          user-scalable = yes allows the user to zoom in -->\\n    <meta name="viewport" content="width=device-width, initial-scale=1.0">\\n    <title>\', escape=False)\nresponse.write(response.title or request.application)\nresponse.write(\'</title>\\n    <!-- http://dev.w3.org/html5/markup/meta.name.html -->\\n    <meta name="application-name" content="\', escape=False)\nresponse.write(request.application)\nresponse.write(\'">\\n    <!-- Speaking of Google, don\\\'t forget to set your site up:\\n         http://google.com/webmasters -->\\n    <meta name="google-site-verification" content="">\\n    <!-- include stylesheets -->\\n    <link rel="stylesheet" href="\', escape=False)\nresponse.write(URL(\'static\',\'css/IAPTassessment.css\'))\nresponse.write(\'"/>\\n    <link rel="stylesheet" href="\', escape=False)\nresponse.write(URL(\'static\',\'css/bootstrap.min.css\'))\nresponse.write(\'"/>\\n    <link rel="stylesheet" href="\', escape=False)\nresponse.write(URL(\'static\',\'css/bootstrap-theme.min.css\'))\nresponse.write(\'"/>\\n    <link rel="stylesheet" href="\', escape=False)\nresponse.write(URL(\'static\',\'css/web2py-bootstrap3.css\'))\nresponse.write(\'"/>\\n    <link rel="shortcut icon" href="\', escape=False)\nresponse.write(URL(\'static\',\'images/favicon.ico\'))\nresponse.write(\'" type="image/x-icon">\\n    <link rel="apple-touch-icon" href="\', escape=False)\nresponse.write(URL(\'static\',\'images/favicon.png\'))\nresponse.write(\'">\\n    <!-- All JavaScript at the bottom, except for Modernizr which enables\\n         HTML5 elements & feature detects -->\\n    <script src="\', escape=False)\nresponse.write(URL(\'static\',\'js/comic.js\'))\nresponse.write(\'"></script>\\n    <script src="\', escape=False)\nresponse.write(URL(\'static\',\'js/modernizr-2.8.3.min.js\'))\nresponse.write(\'"></script>\\n    <!--[if lt IE 9]>\\n        <script src="\', escape=False)\nresponse.write(URL(\'static\',\'js/respond-1.4.2.min.js\'))\nresponse.write(\'"></script>\\n        <![endif]-->\\n    <!-- Favicons -->\\n\', escape=False)\nresponse.write(\'<script type="text/javascript"><!--\\n    // These variables are used by the web2py_ajax_init function in web2py_ajax.js (which is loaded below).\\n    var w2p_ajax_confirm_message = "\', escape=False)\nresponse.write(T(\'Are you sure you want to delete this object?\'))\nresponse.write(\'";\\n    var w2p_ajax_disable_with_message = "\', escape=False)\nresponse.write(T(\'Working...\'))\nresponse.write(\'";\\n    var w2p_ajax_date_format = "\', escape=False)\nresponse.write(T(\'%Y-%m-%d\'))\nresponse.write(\'";\\n    var w2p_ajax_datetime_format = "\', escape=False)\nresponse.write(T(\'%Y-%m-%d %H:%M:%S\'))\nresponse.write(\'";\\n    var ajax_error_500 = \\\'\', escape=False)\nresponse.write(T.M(\'An error occured, please [[reload %s]] the page\') % URL(args=request.args, vars=request.get_vars))\nresponse.write("\'\\n    //--></script>\\n", escape=False)\nresponse.files.insert(0,URL(\'static\',\'js/jquery.js\'))\nresponse.files.insert(1,URL(\'static\',\'css/calendar.css\'))\nresponse.files.insert(2,URL(\'static\',\'js/calendar.js\'))\nresponse.files.insert(3,URL(\'static\',\'js/web2py.js\'))\nresponse.include_meta()\nresponse.include_files()\nresponse.write(\'\\n\', escape=False)\nresponse.write(\' <!-- this includes jquery.js, calendar.js/.css and web2py.js -->\\n\', escape=False)\nresponse.write(\'\\n\', escape=False)\n# using sidebars need to know what sidebar you want to use\nmc0 = \'col-md-12\'\nmc1 = \'col-md-9\'\nmc2 = \'col-md-6\'\nleft_sidebar_enabled = globals().get(\'left_sidebar_enabled\', False)\nright_sidebar_enabled = globals().get(\'right_sidebar_enabled\', False)\nmiddle_column = {0: mc0, 1: mc1, 2: mc2}[\n(left_sidebar_enabled and 1 or 0)+(right_sidebar_enabled and 1 or 0)]\nresponse.write(\'\\n</head>\\n<body>\\n<div class="flash alert alert-dismissable">\', escape=False)\nresponse.write(response.flash or \'\')\nresponse.write(\'</div>\\n<!-- Navbar ======================================= -->\\n<nav class="navbar navbar-inverse navbar-fixed-top" role="navigation">\\n    <div class="container-fluid">\\n        <div class="navbar-header">\\n            <button type="button" class="navbar-toggle" data-toggle="collapse" data-target=".navbar-collapse">\\n                <span class="sr-only">Toggle navigation</span>\\n                <span class="icon-bar"></span>\\n                <span class="icon-bar"></span>\\n                <span class="icon-bar"></span>\\n            </button>\\n        \', escape=False)\nresponse.write(response.logo or \'\')\nresponse.write(\'\\n        </div>\\n        <div class="collapse navbar-collapse navbar-ex1-collapse">\\n            <ul class="nav navbar-nav navbar-right">\\n            \', escape=False)\nresponse.write(\'auth\' in globals() and auth.navbar(\'Welcome\',mode=\'dropdown\') or \'\')\nresponse.write(\'\\n            </ul>\\n        \', escape=False)\nif response.menu:\n    response.write(\'\\n            \', escape=False)\n    response.write(MENU(response.menu, _class=\'nav navbar-nav\',li_class=\'dropdown\',ul_class=\'dropdown-menu\'))\n    response.write(\'\\n        \', escape=False)\n    pass\nresponse.write(\'\\n        </div>\\n    </div>\\n</nav>\\n<!-- Masthead ===================================== -->\\n\', escape=False)\nresponse.write(\'\\n\', escape=False)\nresponse.write(\'\\n<!-- Main ========================================= -->\\n<!-- Begin page content -->\\n<div class="container-fluid main-container">\\n\', escape=False)\nif left_sidebar_enabled:\n    response.write(\'\\n    <div class="col-md-3 left-sidebar">\\n    \', escape=False)\n    response.write(\'\\n        <h3>Left Sidebar</h3>\\n\\n        <p></p>\\n    \', escape=False)\n    response.write(\'\\n    </div>\\n\', escape=False)\n    pass\nresponse.write(\'\\n\\n    <div class="\', escape=False)\nresponse.write(middle_column)\nresponse.write(\'">\\n    \', escape=False)\nresponse.write(\'\\n        \', escape=False)\nresponse.write(\'\\n<div class="pagetitle">\\n    \', escape=False)\nresponse.write(boxdetails.name)\nresponse.write(\'\\n</div>\\n<div style="float:left">Created on: \', escape=False)\nresponse.write(boxdetails.created_on)\nresponse.write(\' </div>\\n\\n<div style="float:right">Privacy mode: \', escape=False)\nif boxdetails.private:\n    response.write(\' private \', escape=False)\nelse:\n    response.write(\' public \', escape=False)\n    pass\nresponse.write(\' </div>\\n\\n<div style="clear:both">\\n    \', escape=False)\nfor row in box_comics:\n    response.write(\'\\n            \', escape=False)\n    if len(row.comicbook.cover)>0:\n        response.write(\'\\n    <div id = "\', escape=False)\n        response.write(row.comicbook.id)\n        response.write(\'" class="comic" style="background-image: url(\', escape=False)\n        response.write(URL(r=request, c=\'default\', f=\'fast_download\',  args=row.comicbook.cover, host=True))\n        response.write(\');">\\n\', escape=False)\n    else:\n        response.write(\'\\n    <div id = "\', escape=False)\n        response.write(row.comicbook.id)\n        response.write(\'" class="comic" style="background-image: url(\', escape=False)\n        response.write(URL(\'static\', \'images\', args=\'comic_cover_placeholder.png\'))\n        response.write(\');">\\n\', escape=False)\n        pass\n    response.write(\'\\n        <div class="hovertext">\\n            <div class="comictitle">\\n            \', escape=False)\n    if (not row.comicbook.publisher) & (row.comicbook.publisher is not None):\n        response.write(\'\\n                \', escape=False)\n        response.write(row.comicbook.publisher)\n        response.write("\'s <br> ", escape=False)\n        response.write(row.comicbook.title)\n        response.write(\'\\n            \', escape=False)\n    else:\n        response.write(\'\\n                \', escape=False)\n        response.write(row.comicbook.title)\n        response.write(\'\\n            \', escape=False)\n        pass\n    response.write(\'\\n            </div>\\n            <div class="comicwriter" style="float:left; clear:both">\\n                Writers:\\n            \', escape=False)\n    for writer_row in writer_comics:\n        response.write(\'\\n                \', escape=False)\n        if writer_row.comicWriter.comicbook_id==row.comicbook.id:\n            response.write(\'\\n                    \', escape=False)\n            response.write(writer_row.writer.name)\n            response.write(\'\\n                \', escape=False)\n            pass\n        response.write(\'\\n            \', escape=False)\n        pass\n    response.write(\'\\n            </div>\\n            <div class="comicwriter" style="float:left; clear:both">\\n                Artists:\\n            \', escape=False)\n    for artist_row in artist_comics:\n        response.write(\'\\n                \', escape=False)\n        if artist_row.comicArtist.comicbook_id==row.comicbook.id:\n            response.write(\'\\n                    \', escape=False)\n            response.write(artist_row.artist.name)\n            response.write(\'\\n                \', escape=False)\n            pass\n        response.write(\'\\n            \', escape=False)\n        pass\n    response.write(\'\\n            </div>\\n            <div class="comic-editing">\\n                <a href="\', escape=False)\n    response.write(URL(\'comics\', \'comicview\', vars={\'comicbookid\': row.comicbook.id}))\n    response.write(\'"><img src="\', escape=False)\n    response.write(URL(\'static\', \'images\', args=\'view.png\'))\n    response.write(\'" class="comic-editing-icon" height="20px" width="20px"/></a>\\n                <a href="\', escape=False)\n    response.write(URL(\'boxes\', \'boxview\', vars={\'boxid\': row.comicbox.id}))\n    response.write(\'"><img src="\', escape=False)\n    response.write(URL(\'static\', \'images\', args=\'box.png\'))\n    response.write(\'" class="comic-editing-icon" height="20px" width="20px"/></a>\\n                <a href="\', escape=False)\n    response.write(URL(\'comics\', \'comicedit\', vars={\'comicbookid\': row.comicbook.id}))\n    response.write(\'"><img src="\', escape=False)\n    response.write(URL(\'static\', \'images\', args=\'edit.png\'))\n    response.write(\'" class="comic-editing-icon" height="20px" width="20px"/></a>\\n                <img class="deleteIcon" onclick="deleteComic(\\\'\', escape=False)\n    response.write(row.comicbook.id)\n    response.write("\', \'", escape=False)\n    response.write(row.comicbook.title)\n    response.write("\', \'", escape=False)\n    response.write(URL(\'comics\', \'comicdelete\'))\n    response.write(\'\\\')", src="\', escape=False)\n    response.write(URL(\'static\', \'images\', args=\'delete.png\'))\n    response.write(\'" height="20px" width="20px"/>\\n            </div>\\n        </div>\\n    </div>\\n\', escape=False)\n    response.write(\'\\n    \', escape=False)\n    pass\nresponse.write(\'\\n        \', escape=False)\nresponse.write(\'<div class="comic" style="border: black solid 1px; background-image: url(\', escape=False)\nresponse.write(URL(\'static\', \'images\', args=\'add.png\'))\nresponse.write(\');">\\n    <div id="addComic" class="hovertext" style="cursor: pointer">\\n        Click here to add a comicbook to your collection\\n    </div>\\n</div>\', escape=False)\nresponse.write(\'\\n</div>\\n\', escape=False)\nif auth.user_id==boxdetails.user_id:\n    response.write(\'\\n    <div>\\n        \', escape=False)\n    response.write(form)\n    response.write(\'\\n    </div>\\n\', escape=False)\n    pass\nresponse.write(\'\\n<script>\\n    $("#addComic").click(function(){\\n        location.href =" \', escape=False)\nresponse.write(URL(\'comics\', \'comiccreate\', vars={"boxid": boxdetails.id}))\nresponse.write(\'"\\n    });\\n</script>\', escape=False)\nresponse.write(\'\\n        \', escape=False)\nresponse.write(\'\\n    </div>\\n\\n\\n\', escape=False)\nif right_sidebar_enabled:\n    response.write(\'\\n    <div class="col-md-3">\\n    \', escape=False)\n    response.write(\'\\n        <h3>Right Sidebar</h3>\\n\\n        <p></p>\\n    \', escape=False)\n    response.write(\'\\n    </div>\\n\', escape=False)\n    pass\nresponse.write(\'\\n\\n</div>\\n\\n\', escape=False)\nresponse.write(\' <!-- this is default footer -->\\n<footer class="footer">\\n    <div class="container-fluid">\\n        <div class="copyright pull-left">\', escape=False)\nresponse.write(T(\'Copyright\'))\nresponse.write(\' &#169; \', escape=False)\nresponse.write(request.now.year)\nresponse.write(\'</div>\\n        <div id="poweredBy" class="pull-right">\\n        \', escape=False)\nresponse.write(T(\'Powered by\'))\nresponse.write(\'\\n            <a href="http://www.web2py.com/">web2py</a>\\n        </div>\\n    </div>\\n</footer>\\n\', escape=False)\nresponse.write(\'\\n<!-- The javascript =============================== -->\\n<script src="\', escape=False)\nresponse.write(URL(\'static\',\'js/bootstrap.min.js\'))\nresponse.write(\'"></script>\\n<script src="\', escape=False)\nresponse.write(URL(\'static\',\'js/web2py-bootstrap3.js\'))\nresponse.write(\'"></script>\\n\', escape=False)\nresponse.write(\'\\n<!-- Share ============================y============ -->\\n<script src="\', escape=False)\nresponse.write(URL(\'static\',\'js/share.js\',vars=dict(static=URL(\'static\',\'images\'))))\nresponse.write(\'"></script>\\n</body>\\n</html>\\n\', escape=False)'
p7
sS'snapshot'
p8
(dp9
sS'traceback'
p10
S'Traceback (most recent call last):\n  File "/usr/userfs/m/mb1069/Downloads/IAPTassessment/web2py/gluon/restricted.py", line 227, in restricted\n    exec ccode in environment\n  File "/usr/userfs/m/mb1069/Downloads/IAPTassessment/web2py/applications/IAPTassessment/views/boxes/boxview.html", line 168, in <module>\nNameError: name \'form\' is not defined\n'
p11
s.