(dp1
S'output'
p2
S"<type 'exceptions.NameError'> name 'page' is not defined"
p3
sS'layer'
p4
S'/home/miguel/Documents/IAPT/web2py/applications/IAPTassessment/views/default/search.html'
p5
sS'code'
p6
S'response.write(\'<!DOCTYPE html>\\n\\n<!--[if (gt IE 9)|!(IE)]><!-->\\n<html class="no-js" lang="\', escape=False)\nresponse.write(T.accepted_language or \'en\')\nresponse.write(\'"> <!--<![endif]-->\\n\\n<head>\\n    <meta charset="utf-8">\\n    <!-- www.phpied.com/conditional-comments-block-downloads/ -->\\n    <!-- Always force latest IE rendering engine\\n         (even in intranet) & Chrome Frame\\n         Remove this if you use the .htaccess -->\\n    <meta http-equiv="X-UA-Compatible" content="IE=edge\', escape=False)\nresponse.write(not request.is_local and \',chrome=1\' or \'\')\nresponse.write(\'">\\n    <!--  Mobile Viewport Fix\\n          j.mp/mobileviewport & davidbcalhoun.com/2010/viewport-metatag\\n          device-width: Occupy full width of the screen in its current orientation\\n          initial-scale = 1.0 retains dimensions instead of zooming out if page height > device height\\n          user-scalable = yes allows the user to zoom in -->\\n    <meta name="viewport" content="width=device-width, initial-scale=1.0">\\n    <title>\', escape=False)\nresponse.write(response.title or request.application)\nresponse.write(\'</title>\\n    <!-- http://dev.w3.org/html5/markup/meta.name.html -->\\n    <meta name="application-name" content="\', escape=False)\nresponse.write(request.application)\nresponse.write(\'">\\n    <!-- Speaking of Google, don\\\'t forget to set your site up:\\n         http://google.com/webmasters -->\\n    <meta name="google-site-verification" content="">\\n    <!-- include stylesheets -->\\n    <link rel="stylesheet" href="\', escape=False)\nresponse.write(URL(\'static\',\'css/comic.css\'))\nresponse.write(\'"/>\\n    <link rel="stylesheet" href="\', escape=False)\nresponse.write(URL(\'static\',\'css/bootstrap.min.css\'))\nresponse.write(\'"/>\\n    <link rel="stylesheet" href="\', escape=False)\nresponse.write(URL(\'static\',\'css/bootstrap-theme.min.css\'))\nresponse.write(\'"/>\\n    <link rel="stylesheet" href="\', escape=False)\nresponse.write(URL(\'static\',\'css/web2py-bootstrap3.css\'))\nresponse.write(\'"/>\\n    <link rel="shortcut icon" href="\', escape=False)\nresponse.write(URL(\'static\',\'images/favicon.ico\'))\nresponse.write(\'" type="image/x-icon">\\n    <link rel="apple-touch-icon" href="\', escape=False)\nresponse.write(URL(\'static\',\'images/favicon.png\'))\nresponse.write(\'">\\n    <!-- All JavaScript at the bottom, except for Modernizr which enables\\n         HTML5 elements & feature detects -->\\n    <script src="\', escape=False)\nresponse.write(URL(\'static\',\'js/comic.js\'))\nresponse.write(\'"></script>\\n    <script src="\', escape=False)\nresponse.write(URL(\'static\',\'js/modernizr-2.8.3.min.js\'))\nresponse.write(\'"></script>\\n    <!--[if lt IE 9]>\\n        <script src="\', escape=False)\nresponse.write(URL(\'static\',\'js/respond-1.4.2.min.js\'))\nresponse.write(\'"></script>\\n        <![endif]-->\\n    <!-- Favicons -->\\n\', escape=False)\nresponse.write(\'<script type="text/javascript"><!--\\n    // These variables are used by the web2py_ajax_init function in web2py_ajax.js (which is loaded below).\\n    var w2p_ajax_confirm_message = "\', escape=False)\nresponse.write(T(\'Are you sure you want to delete this object?\'))\nresponse.write(\'";\\n    var w2p_ajax_disable_with_message = "\', escape=False)\nresponse.write(T(\'Working...\'))\nresponse.write(\'";\\n    var w2p_ajax_date_format = "\', escape=False)\nresponse.write(T(\'%Y-%m-%d\'))\nresponse.write(\'";\\n    var w2p_ajax_datetime_format = "\', escape=False)\nresponse.write(T(\'%Y-%m-%d %H:%M:%S\'))\nresponse.write(\'";\\n    var ajax_error_500 = \\\'\', escape=False)\nresponse.write(T.M(\'An error occured, please [[reload %s]] the page\') % URL(args=request.args, vars=request.get_vars))\nresponse.write("\'\\n    //--></script>\\n", escape=False)\nresponse.files.insert(0,URL(\'static\',\'js/jquery.js\'))\nresponse.files.insert(1,URL(\'static\',\'css/calendar.css\'))\nresponse.files.insert(2,URL(\'static\',\'js/calendar.js\'))\nresponse.files.insert(3,URL(\'static\',\'js/web2py.js\'))\nresponse.include_meta()\nresponse.include_files()\nresponse.write(\'\\n\', escape=False)\nresponse.write(\' <!-- this includes jquery.js, calendar.js/.css and web2py.js -->\\n\', escape=False)\nresponse.write(\'\\n\', escape=False)\n# using sidebars need to know what sidebar you want to use\nmc0 = \'col-md-12\'\nmc1 = \'col-md-9\'\nmc2 = \'col-md-6\'\nleft_sidebar_enabled = globals().get(\'left_sidebar_enabled\', False)\nright_sidebar_enabled = globals().get(\'right_sidebar_enabled\', False)\nmiddle_column = {0: mc0, 1: mc1, 2: mc2}[\n(left_sidebar_enabled and 1 or 0)+(right_sidebar_enabled and 1 or 0)]\nresponse.write(\'\\n</head>\\n<body>\\n<div class="flash alert alert-dismissable">\', escape=False)\nresponse.write(response.flash or \'\')\nresponse.write(\'</div>\\n<!-- Navbar ======================================= -->\\n<nav class="navbar navbar-inverse navbar-fixed-top" role="navigation">\\n    <div class="container-fluid">\\n        <div class="navbar-header">\\n            <button type="button" class="navbar-toggle" data-toggle="collapse" data-target=".navbar-collapse">\\n                <span class="sr-only">Toggle navigation</span>\\n                <span class="icon-bar"></span>\\n                <span class="icon-bar"></span>\\n                <span class="icon-bar"></span>\\n            </button>\\n        \', escape=False)\nresponse.write(response.logo or \'\')\nresponse.write(\'\\n        </div>\\n        <div class="collapse navbar-collapse navbar-ex1-collapse">\\n            <ul class="nav navbar-nav navbar-right">\\n            \', escape=False)\nresponse.write(\'auth\' in globals() and auth.navbar(\'Welcome\',mode=\'dropdown\', referrer_actions=[\'register\', \'profile\']) or \'\')\nresponse.write(\'\\n            </ul>\\n        \', escape=False)\nif response.menu:\n    response.write(\'\\n            \', escape=False)\n    response.write(MENU(response.menu, _class=\'nav navbar-nav\',li_class=\'dropdown\',ul_class=\'dropdown-menu\'))\n    response.write(\'\\n        \', escape=False)\n    pass\nresponse.write(\'\\n        </div>\\n    </div>\\n</nav>\\n<!-- Masthead ===================================== -->\\n\', escape=False)\nresponse.write(\'\\n\', escape=False)\nresponse.write(\'\\n<!-- Main ========================================= -->\\n<!-- Begin page content -->\\n<div class="container-fluid main-container">\\n\', escape=False)\nif left_sidebar_enabled:\n    response.write(\'\\n    <div class="col-md-3 left-sidebar">\\n    \', escape=False)\n    response.write(\'\\n        <h3>Left Sidebar</h3>\\n\\n        <p></p>\\n    \', escape=False)\n    response.write(\'\\n    </div>\\n\', escape=False)\n    pass\nresponse.write(\'\\n\\n    <div class="\', escape=False)\nresponse.write(middle_column)\nresponse.write(\'">\\n    \', escape=False)\nresponse.write(\'\\n        \', escape=False)\nresponse.write(\'\\n        \', escape=False)\nresponse.write(\'\\n    </div>\\n\\n\\n\', escape=False)\nif right_sidebar_enabled:\n    response.write(\'\\n    <div class="col-md-3">\\n    \', escape=False)\n    response.write(\'\\n        <h3>Right Sidebar</h3>\\n\\n        <p></p>\\n    \', escape=False)\n    response.write(\'\\n    </div>\\n\', escape=False)\n    pass\nresponse.write(\'\\n\\n</div>\\n\\n\', escape=False)\nresponse.write(\' <!-- this is default footer -->\\n<footer class="footer">\\n    <div class="container-fluid">\\n        <div class="copyright pull-left">\', escape=False)\nresponse.write(T(\'Copyright\'))\nresponse.write(\' &#169; \', escape=False)\nresponse.write(request.now.year)\nresponse.write(\'</div>\\n        <div id="poweredBy" class="pull-right">\\n        \', escape=False)\nresponse.write(T(\'Powered by\'))\nresponse.write(\'\\n            <a href="http://www.web2py.com/">web2py</a>\\n        </div>\\n    </div>\\n</footer>\\n\', escape=False)\nresponse.write(\'\\n<!-- The javascript =============================== -->\\n<script src="\', escape=False)\nresponse.write(URL(\'static\',\'js/bootstrap.min.js\'))\nresponse.write(\'"></script>\\n<script src="\', escape=False)\nresponse.write(URL(\'static\',\'js/web2py-bootstrap3.js\'))\nresponse.write(\'"></script>\\n\', escape=False)\nresponse.write(\'\\n<!-- Share ============================y============ -->\\n<script src="\', escape=False)\nresponse.write(URL(\'static\',\'js/share.js\',vars=dict(static=URL(\'static\',\'images\'))))\nresponse.write(\'"></script>\\n</body>\\n</html>\\n\', escape=False)\nresponse.write(\'\\n<div id="searchform" style="width:52em; margin:0 auto;">\\n    \', escape=False)\nresponse.write(form)\nresponse.write(\'\\n</div>\\n\', escape=False)\nif len(search_results)>0:\n    response.write(\'\\n    <div id="searchresults">\\n    <table class="searchresultstable">\\n        <tr>\\n            <th style="text-align: center;">User id</th>\\n            <th style="text-align: center;">Box name</th>\\n            <th style="text-align: center;">Title</th>\\n            <th style="text-align: center;">Publisher</th>\\n            <th style="text-align: center;">Issue number</th>\\n            <th style="text-align: center;">Writers</th>\\n            <th style="text-align: center;">Artists</th>\\n            <th style="text-align: center;">View</th>\\n            <th style="text-align: center;">Edit</th>\\n            <th style="text-align: center;">Copy</th>\\n        </tr>\\n    \', escape=False)\n    for row in search_results:\n        response.write(\'\\n        <tr>\\n            <td class="first" align="center">\', escape=False)\n        response.write(row.comicbox.user_id)\n        response.write(\'</td>\\n            <td align="center">\', escape=False)\n        response.write(row.comicbox.name)\n        response.write(\'</td>\\n            <td align="center">\', escape=False)\n        response.write(row.comicbook.title)\n        response.write(\'</td>\\n            <td align="center">\', escape=False)\n        response.write(row.publisher.name)\n        response.write(\'</td>\\n            <td align="center">\', escape=False)\n        response.write(row.comicbook.issue_number)\n        response.write(\'</td>\\n            <td align="center">\', escape=False)\n        response.write(row.writerNames)\n        response.write(\'</td>\\n            <td align="center">\', escape=False)\n        response.write(row.artistNames)\n        response.write(\'</td>\\n            <td align="center"><a href="\', escape=False)\n        response.write(URL(\'comics\', \'comicview\', vars={\'comicbookid\': row.comicbook.id}))\n        response.write(\'"><img src="\', escape=False)\n        response.write(URL(\'static\', \'images\', args=\'view.png\'))\n        response.write(\'" class="comic-editing-icon" height="20px" width="20px"/></a></td>\\n            \', escape=False)\n        if auth.is_logged_in():\n            response.write(\'\\n                \', escape=False)\n            if row.isOwnedByCurrentUser:\n                response.write(\'\\n                    <td align="center"><a href="\', escape=False)\n                response.write(URL(\'comics\', \'comicedit\', vars={\'comicbookid\': row.comicbook.id}))\n                response.write(\'"><img src="\', escape=False)\n                response.write(URL(\'static\', \'images\', args=\'edit.png\'))\n                response.write(\'" class="comic-editing-icon" height="20px" width="20px"/></a></td>\\n                    <td class="last"></td>\\n                \', escape=False)\n            else:\n                response.write(\'\\n                    <td></td>\\n                    <td class="last" align="center"><a href="\', escape=False)\n                response.write(URL(\'comics\', \'comiccreate\', vars={\'comicbookid\': row.comicbook.id}))\n                response.write(\'"><img src="\', escape=False)\n                response.write(URL(\'static\', \'images\', args=\'copy.png\'))\n                response.write(\'" class="comic-editing-icon" height="20px" width="20px"/></a></td>\\n                \', escape=False)\n                pass\n            response.write(\'\\n            \', escape=False)\n        else:\n            response.write(\'\\n                <td></td>\\n                <td class="last"></td>\\n            \', escape=False)\n            pass\n        response.write(\'\\n\\n        </tr>\\n        \', escape=False)\n        pass\n    response.write(\'\\n        </table>\\n<div style="width:100%; clear:both">\\n        <ul class="pager">\\n            \', escape=False)\n    if page!=0:\n        response.write(\'\\n                <li class="previous"><a href="\', escape=False)\n        response.write(URL(vars={"form": form, "page":page-1}))\n        response.write(\'">Previous</a></li>\\n            \', escape=False)\n        pass\n    response.write(\'\\n            \', escape=False)\n    if display_next:\n        response.write(\'\\n                <li class="next"><a href="\', escape=False)\n        response.write(URL(vars={"form": form, "page":page-1}))\n        response.write(\'">Next</a></li>\\n            \', escape=False)\n        pass\n    response.write(\'\\n        </ul>\\n</div>\\n    </div>\\n\', escape=False)\n    pass'
p7
sS'snapshot'
p8
(dp9
sS'traceback'
p10
S'Traceback (most recent call last):\n  File "/home/miguel/Documents/IAPT/web2py/gluon/restricted.py", line 227, in restricted\n    exec ccode in environment\n  File "/home/miguel/Documents/IAPT/web2py/applications/IAPTassessment/views/default/search.html", line 150, in <module>\nNameError: name \'page\' is not defined\n'
p11
s.